ccopy_reg
_reconstructor
p0
(cFWCore.ParameterSet.Config
Process
p1
c__builtin__
object
p2
Ntp3
Rp4
(dp5
S'CaloGeometryBuilder'
p6
g0
(cFWCore.ParameterSet.Modules
ESProducer
p7
g2
Ntp8
Rp9
(dp10
S'_Parameterizable__parameterNames'
p11
(lp12
S'SelectedCalos'
p13
asS'_isFrozen'
p14
I00
sS'_isModified'
p15
I00
sS'_lineNumber'
p16
I56
sS'_filename'
p17
S'/cvmfs/cms.cern.ch/slc7_amd64_gcc700/cms/cmssw/CMSSW_10_6_20/python/FWCore/ParameterSet/Modules.py'
p18
sg13
g0
(cFWCore.ParameterSet.Types
vstring
p19
c__builtin__
list
p20
(lp21
S'HCAL'
p22
aS'ZDC'
p23
aS'CASTOR'
p24
aS'EcalBarrel'
p25
aS'EcalEndcap'
p26
aS'EcalPreshower'
p27
aS'TOWER'
p28
atp29
Rp30
(dp31
g14
I00
sS'_ParameterTypeBase__isTracked'
p32
I01
sg15
I00
sS'_nPerLine'
p33
I1
sbsS'_Labelable__label'
p34
g6
sS'_TypedParameterizable__type'
p35
g6
sbsS'_Process__sequences'
p36
(dp37
sS'_Process__source'
p38
g0
(cFWCore.ParameterSet.Modules
Source
p39
g2
Ntp40
Rp41
(dp42
g11
(lp43
S'skipEvents'
p44
aS'fileNames'
p45
asg14
I00
sg15
I00
sg16
I196
sg17
g18
sg44
g0
(cFWCore.ParameterSet.Types
uint32
p46
g2
Ntp47
Rp48
(dp49
g14
I00
sg32
I00
sS'_value'
p50
I0
sg15
I00
sbsg45
g0
(g19
g20
(lp51
tp52
Rp53
(dp54
g14
I00
sg32
I00
sg15
I00
sg33
I1
sbsg35
S'PoolSource'
p55
sbsS'XMLFromDBSource'
p56
g0
(g7
g2
Ntp57
Rp58
(dp59
g11
(lp60
S'rootDDName'
p61
aS'label'
p62
asg14
I00
sg15
I00
sg16
I56
sg17
g18
sg61
g0
(cFWCore.ParameterSet.Types
string
p63
g2
Ntp64
Rp65
(dp66
g14
I00
sg32
I01
sg50
S'cms:OCMS'
p67
sg15
I00
sbsg62
g0
(g63
g2
Ntp68
Rp69
(dp70
g14
I00
sg32
I01
sg50
S'Extended'
p71
sg15
I00
sbsg34
g56
sg35
S'XMLIdealGeometryESProducer'
p72
sbsS'TFileService'
p73
g0
(cFWCore.ParameterSet.Modules
Service
p74
g2
Ntp75
Rp76
(dp77
g11
(lp78
S'fileName'
p79
asg14
I00
sS'_inProcess'
p80
I01
sg15
I00
sg16
I14
sg17
g18
sg79
g0
(g63
g2
Ntp81
Rp82
(dp83
g14
I00
sg32
I01
sg50
S'output.root'
p84
sg15
I00
sbsg35
g73
sbsS'es_prefer_GlobalTag'
p85
g0
(cFWCore.ParameterSet.Modules
ESPrefer
p86
g2
Ntp87
Rp88
(dp89
g11
(lp90
sg14
I00
sg15
I00
sS'_targetLabel'
p91
S'GlobalTag'
p92
sg16
I92
sg17
g18
sg34
g85
sg35
S'PoolDBESSource'
p93
sbsS'fevt'
p94
g0
(cFWCore.ParameterSet.Modules
EDAnalyzer
p95
g2
Ntp96
Rp97
(dp98
g14
I00
sg16
I67
sS'srcJetResPt'
p99
g0
(g63
g2
Ntp100
Rp101
(dp102
g14
I00
sg32
I01
sg50
S'AK4PFchs_pt'
p103
sg15
I00
sbsS'metCollection'
p104
g0
(cFWCore.ParameterSet.Types
InputTag
p105
g2
Ntp106
Rp107
(dp108
g14
I00
sg32
I01
sg15
I00
sS'_InputTag__moduleLabel'
p109
S'pfMet'
p110
sS'_InputTag__processName'
p111
S''
p112
sS'_InputTag__productInstance'
p113
g112
sbsS'tauDecayMode'
p114
g0
(g105
g2
Ntp115
Rp116
(dp117
g14
I00
sg32
I01
sg15
I00
sg109
S'hpsPFTauDiscriminationByDecayModeFindingOldDMs'
p118
sg111
g112
sg113
g112
sbsS'granularityMultiPhi'
p119
g0
(cFWCore.ParameterSet.Types
int32
p120
g2
Ntp121
Rp122
(dp123
g14
I00
sg32
I01
sg50
I5
sg15
I00
sbsS'srcJetSF'
p124
g0
(g63
g2
Ntp125
Rp126
(dp127
g14
I00
sg32
I01
sg50
S'AK4PFchs'
p128
sg15
I00
sbsS'gedPhotonCollection'
p129
g0
(g105
g2
Ntp130
Rp131
(dp132
g14
I00
sg32
I01
sg15
I00
sg109
S'gedPhotons'
p133
sg111
g112
sg113
g112
sbsS'tauElectronRejectionMVA6VLoose'
p134
g0
(g105
g2
Ntp135
Rp136
(dp137
g14
I00
sg32
I01
sg15
I00
sg109
S'hpsPFTauDiscriminationByMVA6VLooseElectronRejection'
p138
sg111
g112
sg113
g112
sbsS'tauElectronRejectionMVA6Loose'
p139
g0
(g105
g2
Ntp140
Rp141
(dp142
g14
I00
sg32
I01
sg15
I00
sg109
S'hpsPFTauDiscriminationByMVA6LooseElectronRejection'
p143
sg111
g112
sg113
g112
sbsS'trackCollection'
p144
g0
(g105
g2
Ntp145
Rp146
(dp147
g14
I00
sg32
I01
sg15
I00
sg109
S'generalTracks'
p148
sg111
g112
sg113
g112
sbsS'recoJetsForBTagging'
p149
g0
(g105
g2
Ntp150
Rp151
(dp152
g14
I00
sg32
I01
sg15
I00
sg109
S'ak4PFJetsCHS'
p153
sg111
g112
sg113
g112
sbsS'tauCollection'
p154
g0
(g105
g2
Ntp155
Rp156
(dp157
g14
I00
sg32
I01
sg15
I00
sg109
S'hpsPFTauProducer'
p158
sg111
g112
sg113
g112
sbsS'reducedEERecHitCollection'
p159
g0
(g105
g2
Ntp160
Rp161
(dp162
g14
I00
sg32
I01
sg15
I00
sg109
S'reducedEcalRecHitsEE'
p163
sg111
g112
sg113
g112
sbsS'srcJetResPhi'
p164
g0
(g63
g2
Ntp165
Rp166
(dp167
g14
I00
sg32
I01
sg50
S'AK4PFchs_phi'
p168
sg15
I00
sbsg35
S'RecHitAnalyzer'
p169
sS'z0PVCut'
p170
g0
(cFWCore.ParameterSet.Types
double
p171
g2
Ntp172
Rp173
(dp174
g14
I00
sg32
I01
sg50
F0.1
sg15
I00
sbsg11
(lp175
g99
ag104
ag114
ag119
ag124
ag129
ag134
ag144
ag149
ag154
ag159
ag164
ag170
aS'eleCollection'
p176
aS'parameters'
p177
aS'ipTagInfoCollection'
p178
aS'reducedHBHERecHitCollection'
p179
aS'tauMVAIsolationLoose'
p180
aS'reducedEBRecHitCollection'
p181
aS'ak4PFJetCollection'
p182
aS'vertexCollection'
p183
aS'transTrackBuilder'
p184
aS'trackRecHitCollection'
p185
aS'granularityMultiEta'
p186
aS'minJetPt'
p187
aS'genJetCollection'
p188
aS'srcLeptons'
p189
aS'siStripStereoRecHits'
p190
aS'rhoLabel'
p191
aS'srcPfJets'
p192
ag139
aS'pfCollection'
p193
aS'jetTagCollection'
p194
aS'genParticleCollection'
p195
aS'tauMuonRejectionLoose'
p196
aS'siStripMatchedRecHitCollection'
p197
aS'nJets'
p198
aS'siStripRphiRecHits'
p199
aS'siPixelRecHitCollection'
p200
aS'tauMVAIsolationTight'
p201
aS'tauMVAIsolationRaw'
p202
aS'mode'
p203
aS'triggerResultsTag'
p204
aS'maxJetEta'
p205
aS'srcPFCandidates'
p206
asg176
g0
(g105
g2
Ntp207
Rp208
(dp209
g14
I00
sg32
I01
sg15
I00
sg109
S'gedGsfElectrons'
p210
sg111
g112
sg113
g112
sbsg177
g0
(cFWCore.ParameterSet.Types
PSet
p211
g2
Ntp212
Rp213
(dp214
g14
I00
sg32
I01
sg15
I00
sS'pjpar'
p215
g0
(cFWCore.ParameterSet.Types
vdouble
p216
g20
(lp217
F-0.2586
aF0.6173
atp218
Rp219
(dp220
g14
I00
sg32
I01
sg15
I00
sbsS'jeta'
p221
g0
(g216
g20
(lp222
F0.8
aF1.3
aF1.9
aF2.5
atp223
Rp224
(dp225
g14
I00
sg32
I01
sg15
I00
sbsS'jpar'
p226
g0
(g216
g20
(lp227
F1.39
aF1.26
aF1.21
aF1.23
aF1.28
atp228
Rp229
(dp230
g14
I00
sg32
I01
sg15
I00
sbsS'dRMatch'
p231
g0
(g171
g2
Ntp232
Rp233
(dp234
g14
I00
sg32
I01
sg50
F0.4
sg15
I00
sbsS'jetThreshold'
p235
g0
(g171
g2
Ntp236
Rp237
(dp238
g14
I00
sg32
I01
sg50
I15
sg15
I00
sbsg11
(lp239
g215
ag221
ag231
ag235
ag226
aS'useDeltaRforFootprint'
p240
asg34
S'METSignificanceParams'
p241
sg240
g0
(cFWCore.ParameterSet.Types
bool
p242
g2
Ntp243
Rp244
(dp245
g14
I00
sg32
I01
sg50
I00
sg15
I00
sbsbsg17
S'/afs/cern.ch/work/r/rchudasa/private/TauClassification/CMSSW_10_6_20/python/MLAnalyzer/RecHitAnalyzer/RHAnalyzer_cfi.py'
p246
sg178
g0
(g105
g2
Ntp247
Rp248
(dp249
g14
I00
sg32
I01
sg15
I00
sg109
S'pfImpactParameterTagInfos'
p250
sg111
g112
sg113
g112
sbsg179
g0
(g105
g2
Ntp251
Rp252
(dp253
g14
I00
sg32
I01
sg15
I00
sg109
S'reducedHcalRecHits'
p254
sg111
g112
sg113
S'hbhereco'
p255
sbsg180
g0
(g105
g2
Ntp256
Rp257
(dp258
g14
I00
sg32
I01
sg15
I00
sg109
S'hpsPFTauDiscriminationByVLooseIsolationMVArun2v1DBnewDMwLT'
p259
sg111
g112
sg113
g112
sbsg181
g0
(g105
g2
Ntp260
Rp261
(dp262
g14
I00
sg32
I01
sg15
I00
sg109
S'reducedEcalRecHitsEB'
p263
sg111
g112
sg113
g112
sbsg182
g0
(g105
g2
Ntp264
Rp265
(dp266
g14
I00
sg32
I01
sg15
I00
sg109
S'ak4PFJets'
p267
sg111
g112
sg113
g112
sbsg183
g0
(g105
g2
Ntp268
Rp269
(dp270
g14
I00
sg32
I01
sg15
I00
sg109
S'offlinePrimaryVertices'
p271
sg111
g112
sg113
g112
sbsg184
g0
(cFWCore.ParameterSet.Types
ESInputTag
p272
g2
Ntp273
Rp274
(dp275
g14
I00
sg32
I01
sS'_ESInputTag__data'
p276
g112
sg15
I00
sS'_ESInputTag__moduleLabel'
p277
S'TransientTrackBuilder'
p278
sbsg185
g0
(g105
g2
Ntp279
Rp280
(dp281
g14
I00
sg32
I01
sg15
I00
sg109
g148
sg111
g112
sg113
g112
sbsg186
g0
(g120
g2
Ntp282
Rp283
(dp284
g14
I00
sg32
I01
sg50
I5
sg15
I00
sbsg203
g0
(g63
g2
Ntp285
Rp286
(dp287
g14
I00
sg32
I01
sg50
S'JetLevel'
p288
sg15
I00
sbsg188
g0
(g105
g2
Ntp289
Rp290
(dp291
g14
I00
sg32
I01
sg15
I00
sg109
S'ak4GenJets'
p292
sg111
g112
sg113
g112
sbsg189
g0
(cFWCore.ParameterSet.Types
VInputTag
p293
g20
(lp294
g210
aS'muons'
p295
ag133
atp296
Rp297
(dp298
g14
I00
sg32
I01
sg15
I00
sbsg190
g0
(g105
g2
Ntp299
Rp300
(dp301
g14
I00
sg32
I01
sg15
I00
sg109
S'siStripMatchedRecHits'
p302
sg111
g112
sg113
S'stereoRecHit'
p303
sbsg191
g0
(g105
g2
Ntp304
Rp305
(dp306
g14
I00
sg32
I01
sg15
I00
sg109
S'fixedGridRhoAll'
p307
sg111
g112
sg113
g112
sbsg192
g0
(g105
g2
Ntp308
Rp309
(dp310
g14
I00
sg32
I01
sg15
I00
sg109
g267
sg111
g112
sg113
g112
sbsg193
g0
(g105
g2
Ntp311
Rp312
(dp313
g14
I00
sg32
I01
sg15
I00
sg109
S'particleFlow'
p314
sg111
g112
sg113
g112
sbsg194
g0
(g105
g2
Ntp315
Rp316
(dp317
g14
I00
sg32
I01
sg15
I00
sg109
S'pfCombinedInclusiveSecondaryVertexV2BJetTags'
p318
sg111
g112
sg113
g112
sbsg195
g0
(g105
g2
Ntp319
Rp320
(dp321
g14
I00
sg32
I01
sg15
I00
sg109
S'genParticles'
p322
sg111
g112
sg113
g112
sbsg197
g0
(g105
g2
Ntp323
Rp324
(dp325
g14
I00
sg32
I01
sg15
I00
sg109
g302
sg111
g112
sg113
S'matchedRecHit'
p326
sbsg196
g0
(g105
g2
Ntp327
Rp328
(dp329
g14
I00
sg32
I01
sg15
I00
sg109
S'hpsPFTauDiscriminationByLooseMuonRejection3'
p330
sg111
g112
sg113
g112
sbsg15
I01
sg198
g0
(g120
g2
Ntp331
Rp332
(dp333
g14
I00
sg32
I01
sg50
I-1
sg15
I00
sbsg199
g0
(g105
g2
Ntp334
Rp335
(dp336
g14
I00
sg32
I01
sg15
I00
sg109
g302
sg111
g112
sg113
S'rphiRecHit'
p337
sbsg200
g0
(g105
g2
Ntp338
Rp339
(dp340
g14
I00
sg32
I01
sg15
I00
sg109
S'siPixelRecHits'
p341
sg111
g112
sg113
g112
sbsg201
g0
(g105
g2
Ntp342
Rp343
(dp344
g14
I00
sg32
I01
sg15
I00
sg109
S'hpsPFTauDiscriminationByTightIsolationMVArun2v1DBoldDMwLT'
p345
sg111
g112
sg113
g112
sbsg202
g0
(g105
g2
Ntp346
Rp347
(dp348
g14
I00
sg32
I01
sg15
I00
sg109
S'hpsPFTauDiscriminationByIsolationMVArun2v1DBnewDMwLTraw'
p349
sg111
g112
sg113
g112
sbsg187
g0
(g171
g2
Ntp350
Rp351
(dp352
g14
I00
sg32
I01
sg50
F20.0
sg15
I00
sbsg34
g94
sg204
g0
(g105
g2
Ntp353
Rp354
(dp355
g14
I00
sg32
I01
sg15
I00
sg109
S'TriggerResults'
p356
sg111
S'HLT'
p357
sg113
g112
sbsg205
g0
(g171
g2
Ntp358
Rp359
(dp360
g14
I00
sg32
I01
sg50
F2.4
sg15
I00
sbsg206
g0
(g105
g2
Ntp361
Rp362
(dp363
g14
I00
sg32
I01
sg15
I00
sg109
g314
sg111
g112
sg113
g112
sbsbsS'hcalDDDSimConstants'
p364
g0
(g7
g2
Ntp365
Rp366
(dp367
g11
(lp368
S'appendToDataLabel'
p369
asg14
I00
sg369
g0
(g63
g2
Ntp370
Rp371
(dp372
g14
I00
sg32
I01
sg50
g112
sg15
I00
sbsg15
I00
sg16
I56
sg17
g18
sg34
g364
sg35
S'HcalDDDSimConstantsESModule'
p373
sbsS'source'
p374
g41
sS'CaloTowerGeometryFromDBEP'
p375
g0
(g7
g2
Ntp376
Rp377
(dp378
g11
(lp379
S'applyAlignment'
p380
asg14
I00
sg15
I00
sg16
I56
sg17
g18
sg34
g375
sg380
g0
(g242
g2
Ntp381
Rp382
(dp383
g14
I00
sg32
I01
sg50
I00
sg15
I00
sbsg35
g375
sbsS'_Process__InExtendCall'
p384
I00
sS'_Process__producers'
p385
(dp386
sS'siPixelQualityESProducer'
p387
g0
(g7
g2
Ntp388
Rp389
(dp390
g11
(lp391
S'siPixelQualityLabel'
p392
aS'ListOfRecordToMerge'
p393
asg14
I00
sg15
I01
sg16
I56
sg392
g0
(g63
g2
Ntp394
Rp395
(dp396
g14
I00
sg32
I01
sg50
g112
sg15
I00
sbsg17
g18
sg393
g0
(cFWCore.ParameterSet.Types
VPSet
p397
g20
(lp398
g0
(g211
g2
Ntp399
Rp400
(dp401
g14
I00
sg32
I01
sg15
I00
sS'record'
p402
g0
(g63
g2
Ntp403
Rp404
(dp405
g14
I00
sg32
I01
sg50
S'SiPixelQualityFromDbRcd'
p406
sg15
I00
sbsS'tag'
p407
g0
(g63
g2
Ntp408
Rp409
(dp410
g14
I00
sg32
I01
sg50
g112
sg15
I00
sbsg11
(lp411
g402
ag407
asbag0
(g211
g2
Ntp412
Rp413
(dp414
g14
I00
sg32
I01
sg15
I00
sg402
g0
(g63
g2
Ntp415
Rp416
(dp417
g14
I00
sg32
I01
sg50
S'SiPixelDetVOffRcd'
p418
sg15
I00
sbsg407
g0
(g63
g2
Ntp419
Rp420
(dp421
g14
I00
sg32
I01
sg50
g112
sg15
I00
sbsg11
(lp422
g402
ag407
asbatp423
Rp424
(dp425
g14
I00
sg32
I01
sg15
I00
sg33
I1
sbsg34
g387
sg35
S'SiPixelQualityESProducer'
p426
sbsg92
g0
(cFWCore.ParameterSet.Modules
ESSource
p427
g2
Ntp428
Rp429
(dp430
g11
(lp431
S'DBParameters'
p432
aS'connect'
p433
aS'globaltag'
p434
aS'RefreshEachRun'
p435
aS'pfnPrefix'
p436
aS'snapshotTime'
p437
aS'toGet'
p438
aS'pfnPostfix'
p439
aS'RefreshAlways'
p440
aS'ReconnectEachRun'
p441
aS'RefreshOpenIOVs'
p442
aS'DumpStat'
p443
asg14
I00
sg17
S'/cvmfs/cms.cern.ch/slc7_amd64_gcc700/cms/cmssw/CMSSW_10_6_20/python/CondCore/ESSources/CondDBESSource_cfi.py'
p444
sg15
I01
sg434
g0
(g63
g2
Ntp445
Rp446
(dp447
g14
I00
sg32
I01
sg50
S'106X_upgrade2018_realistic_v11_L1v1'
p448
sg15
I00
sbsg435
g0
(g242
g2
Ntp449
Rp450
(dp451
g14
I00
sg32
I00
sg50
I00
sg15
I00
sbsg436
g0
(g63
g2
Ntp452
Rp453
(dp454
g14
I00
sg32
I00
sg50
g112
sg15
I00
sbsg437
g0
(g63
g2
Ntp455
Rp456
(dp457
g14
I00
sg32
I01
sg50
g112
sg15
I00
sbsg438
g0
(g397
g20
(lp458
tp459
Rp460
(dp461
g14
I00
sg32
I01
sg15
I00
sg33
I1
sbsg439
g0
(g63
g2
Ntp462
Rp463
(dp464
g14
I00
sg32
I00
sg50
g112
sg15
I00
sbsg432
g0
(g211
g2
Ntp465
Rp466
(dp467
g14
I00
sg32
I01
sS'authenticationPath'
p468
g0
(g63
g2
Ntp469
Rp470
(dp471
g14
I00
sg32
I00
sg50
g112
sg15
I00
sbsg15
I00
sS'messageLevel'
p472
g0
(g120
g2
Ntp473
Rp474
(dp475
g14
I00
sg32
I00
sg50
I0
sg15
I00
sbsg11
(lp476
g472
aS'security'
p477
aS'authenticationSystem'
p478
ag468
asg477
g0
(g63
g2
Ntp479
Rp480
(dp481
g14
I00
sg32
I00
sg50
g112
sg15
I00
sbsg478
g0
(g120
g2
Ntp482
Rp483
(dp484
g14
I00
sg32
I00
sg50
I0
sg15
I00
sbsbsg440
g0
(g242
g2
Ntp485
Rp486
(dp487
g14
I00
sg32
I00
sg50
I00
sg15
I00
sbsg16
I19
sg433
g0
(g63
g2
Ntp488
Rp489
(dp490
g14
I00
sg32
I01
sg50
S'frontier://FrontierProd/CMS_CONDITIONS'
p491
sg15
I00
sbsg441
g0
(g242
g2
Ntp492
Rp493
(dp494
g14
I00
sg32
I00
sg50
I00
sg15
I00
sbsg34
g92
sg442
g0
(g242
g2
Ntp495
Rp496
(dp497
g14
I00
sg32
I00
sg50
I00
sg15
I00
sbsg443
g0
(g242
g2
Ntp498
Rp499
(dp500
g14
I00
sg32
I00
sg50
I00
sg15
I00
sbsg35
g93
sbsS'TransientTrackBuilderESProducer'
p501
g0
(g7
g2
Ntp502
Rp503
(dp504
g11
(lp505
S'ComponentName'
p506
asg14
I00
sg15
I00
sg16
I56
sg17
g18
sg506
g0
(g63
g2
Ntp507
Rp508
(dp509
g14
I00
sg32
I01
sg50
g278
sg15
I00
sbsg34
g501
sg35
g501
sbsS'_Process__endpaths'
p510
g0
(cFWCore.ParameterSet.DictTypes
SortedKeysDict
p511
c__builtin__
dict
p512
(dp513
tp514
Rp515
(dp516
S'list'
p517
(lp518
sbsS'p'
p519
g0
(cFWCore.ParameterSet.SequenceTypes
Path
p520
g2
Ntp521
Rp522
(dp523
g14
I00
sS'_seq'
p524
g0
(cFWCore.ParameterSet.SequenceTypes
_SequenceCollection
p525
g2
Ntp526
Rp527
(dp528
S'_collection'
p529
(lp530
g0
(cFWCore.ParameterSet.Modules
EDFilter
p531
g2
Ntp532
Rp533
(dp534
g11
(lp535
S'eventSetupPathsKey'
p536
aS'TriggerResultsTag'
p537
aS'HLTPaths'
p538
aS'throw'
p539
aS'andOr'
p540
asg14
I00
sg540
g0
(g242
g2
Ntp541
Rp542
(dp543
g14
I00
sg32
I01
sg50
I01
sg15
I00
sbsg538
g0
(g19
g20
(lp544
S'*'
p545
atp546
Rp547
(dp548
g14
I00
sg32
I01
sg15
I00
sg33
I1
sbsg15
I00
sg16
I54
sg17
S'/afs/cern.ch/work/r/rchudasa/private/TauClassification/CMSSW_10_6_20/src/MLAnalyzer/RecHitAnalyzer/python/ConfFile_cfg.py'
p549
sg34
S'hltFilter'
p550
sg536
g0
(g63
g2
Ntp551
Rp552
(dp553
g14
I00
sg32
I01
sg50
g112
sg15
I00
sbsg539
g0
(g242
g2
Ntp554
Rp555
(dp556
g14
I00
sg32
I01
sg50
I00
sg15
I00
sbsg35
S'HLTHighLevel'
p557
sg537
g0
(g105
g2
Ntp558
Rp559
(dp560
g14
I00
sg32
I01
sg15
I00
sg109
g356
sg111
g357
sg113
g112
sbsbag97
asbsg34
g519
sg15
I00
sS'_tasks'
p561
g0
(cFWCore.ParameterSet.OrderedSet
OrderedSet
p562
g2
Ntp563
Rp564
(dp565
S'map'
p566
(dp567
sS'end'
p568
(lp569
Nag569
ag569
asbsbsS'MuonDetLayerGeometryESProducer'
p570
g0
(g7
g2
Ntp571
Rp572
(dp573
g11
(lp574
sg14
I00
sg15
I00
sg16
I56
sg17
g18
sg34
g570
sg35
g570
sbsS'EcalEndcapGeometryFromDBEP'
p575
g0
(g7
g2
Ntp576
Rp577
(dp578
g11
(lp579
g380
asg14
I00
sg15
I01
sg16
I56
sg17
g18
sg34
g575
sg380
g0
(g242
g2
Ntp580
Rp581
(dp582
g14
I00
sg32
I01
sg50
I01
sg15
I01
sbsg35
g575
sbsS'MessageLogger'
p583
g0
(g74
g2
Ntp584
Rp585
(dp586
g14
I00
sS'suppressInfo'
p587
g0
(g19
g20
(lp588
tp589
Rp590
(dp591
g14
I00
sg32
I00
sg15
I00
sg33
I1
sbsS'suppressDebug'
p592
g0
(g19
g20
(lp593
tp594
Rp595
(dp596
g14
I00
sg32
I00
sg15
I00
sg33
I1
sbsS'cout'
p597
g0
(g211
g2
Ntp598
Rp599
(dp600
g14
I00
sg32
I00
sS'placeholder'
p601
g0
(g242
g2
Ntp602
Rp603
(dp604
g14
I00
sg32
I00
sg50
I01
sg15
I00
sbsg15
I00
sg11
(lp605
g601
asbsg16
I14
sS'debugModules'
p606
g0
(g19
g20
(lp607
tp608
Rp609
(dp610
g14
I00
sg32
I00
sg15
I00
sg33
I1
sbsg35
g583
sS'fwkJobReports'
p611
g0
(g19
g20
(lp612
S'FrameworkJobReport'
p613
atp614
Rp615
(dp616
g14
I00
sg32
I00
sg15
I00
sg33
I1
sbsg11
(lp617
g587
aS'debugs'
p618
ag592
ag597
aS'cerr_stats'
p619
aS'warnings'
p620
aS'default'
p621
aS'statistics'
p622
aS'cerr'
p623
ag613
aS'suppressWarning'
p624
aS'errors'
p625
aS'destinations'
p626
ag606
aS'infos'
p627
aS'categories'
p628
ag611
asg622
g0
(g19
g20
(lp629
g619
atp630
Rp631
(dp632
g14
I00
sg32
I00
sg15
I00
sg33
I1
sbsg17
g18
sg626
g0
(g19
g20
(lp633
g620
ag625
ag627
ag618
ag597
ag623
atp634
Rp635
(dp636
g14
I00
sg32
I00
sg15
I00
sg33
I1
sbsg618
g0
(g211
g2
Ntp637
Rp638
(dp639
g14
I00
sg32
I00
sg601
g0
(g242
g2
Ntp640
Rp641
(dp642
g14
I00
sg32
I00
sg50
I01
sg15
I00
sbsg15
I00
sg11
(lp643
g601
asbsg620
g0
(g211
g2
Ntp644
Rp645
(dp646
g14
I00
sg32
I00
sg601
g0
(g242
g2
Ntp647
Rp648
(dp649
g14
I00
sg32
I00
sg50
I01
sg15
I00
sbsg15
I00
sg11
(lp650
g601
asbsg625
g0
(g211
g2
Ntp651
Rp652
(dp653
g14
I00
sg32
I00
sg601
g0
(g242
g2
Ntp654
Rp655
(dp656
g14
I00
sg32
I00
sg50
I01
sg15
I00
sbsg15
I00
sg11
(lp657
g601
asbsg613
g0
(g211
g2
Ntp658
Rp659
(dp660
g14
I00
sg32
I00
sg15
I00
sg621
g0
(g211
g2
Ntp661
Rp662
(dp663
g14
I00
sg32
I00
sS'limit'
p664
g0
(g120
g2
Ntp665
Rp666
(dp667
g14
I00
sg32
I00
sg50
I0
sg15
I00
sbsg15
I00
sg11
(lp668
g664
asbsS'FwkJob'
p669
g0
(g211
g2
Ntp670
Rp671
(dp672
g14
I00
sg32
I00
sg15
I00
sg664
g0
(g120
g2
Ntp673
Rp674
(dp675
g14
I00
sg32
I00
sg50
I10000000
sg15
I00
sbsg11
(lp676
S'optionalPSet'
p677
ag664
asg677
g0
(g242
g2
Ntp678
Rp679
(dp680
g14
I00
sg32
I00
sg50
I01
sg15
I00
sbsbsg11
(lp681
g621
ag677
ag669
asg677
g0
(g242
g2
Ntp682
Rp683
(dp684
g14
I00
sg32
I00
sg50
I01
sg15
I00
sbsbsg624
g0
(g19
g20
(lp685
tp686
Rp687
(dp688
g14
I00
sg32
I00
sg15
I00
sg33
I1
sbsg627
g0
(g211
g2
Ntp689
Rp690
(dp691
g14
I00
sg32
I00
sg15
I00
sS'Root_NoDictionary'
p692
g0
(g211
g2
Ntp693
Rp694
(dp695
g14
I00
sg32
I00
sg15
I00
sg664
g0
(g120
g2
Ntp696
Rp697
(dp698
g14
I00
sg32
I00
sg50
I0
sg15
I00
sbsg11
(lp699
g677
ag664
asg677
g0
(g242
g2
Ntp700
Rp701
(dp702
g14
I00
sg32
I00
sg50
I01
sg15
I00
sbsbsg11
(lp703
g677
ag692
ag601
asg677
g0
(g242
g2
Ntp704
Rp705
(dp706
g14
I00
sg32
I00
sg50
I01
sg15
I00
sbsg601
g0
(g242
g2
Ntp707
Rp708
(dp709
g14
I00
sg32
I00
sg50
I01
sg15
I00
sbsbsg628
g0
(g19
g20
(lp710
g669
aS'FwkReport'
p711
aS'FwkSummary'
p712
ag692
atp713
Rp714
(dp715
g14
I00
sg32
I00
sg15
I00
sg33
I1
sbsg15
I00
sg619
g0
(g211
g2
Ntp716
Rp717
(dp718
g14
I00
sg32
I00
sg15
I00
sg677
g0
(g242
g2
Ntp719
Rp720
(dp721
g14
I00
sg32
I00
sg50
I01
sg15
I00
sbsg11
(lp722
S'threshold'
p723
aS'output'
p724
ag677
asg723
g0
(g63
g2
Ntp725
Rp726
(dp727
g14
I00
sg32
I00
sg50
S'WARNING'
p728
sg15
I00
sbsg724
g0
(g63
g2
Ntp729
Rp730
(dp731
g14
I00
sg32
I00
sg50
g623
sg15
I00
sbsbsg621
g0
(g211
g2
Ntp732
Rp733
(dp734
g14
I00
sg32
I00
sg15
I00
sg11
(lp735
sbsg80
I01
sg623
g0
(g211
g2
Ntp736
Rp737
(dp738
g14
I00
sg32
I00
sS'noTimeStamps'
p739
g0
(g242
g2
Ntp740
Rp741
(dp742
g14
I00
sg32
I00
sg50
I00
sg15
I00
sbsg711
g0
(g211
g2
Ntp743
Rp744
(dp745
g14
I00
sg32
I00
sg15
I00
sS'reportEvery'
p746
g0
(g120
g2
Ntp747
Rp748
(dp749
g14
I00
sg32
I00
sg50
I1
sg15
I00
sbsg664
g0
(g120
g2
Ntp750
Rp751
(dp752
g14
I00
sg32
I00
sg50
I10000000
sg15
I00
sbsg11
(lp753
g746
ag677
ag664
asg677
g0
(g242
g2
Ntp754
Rp755
(dp756
g14
I00
sg32
I00
sg50
I01
sg15
I00
sbsbsg15
I00
sg621
g0
(g211
g2
Ntp757
Rp758
(dp759
g14
I00
sg32
I00
sg664
g0
(g120
g2
Ntp760
Rp761
(dp762
g14
I00
sg32
I00
sg50
I10000000
sg15
I00
sbsg15
I00
sg11
(lp763
g664
asbsg692
g0
(g211
g2
Ntp764
Rp765
(dp766
g14
I00
sg32
I00
sg15
I00
sg664
g0
(g120
g2
Ntp767
Rp768
(dp769
g14
I00
sg32
I00
sg50
I0
sg15
I00
sbsg11
(lp770
g677
ag664
asg677
g0
(g242
g2
Ntp771
Rp772
(dp773
g14
I00
sg32
I00
sg50
I01
sg15
I00
sbsbsS'INFO'
p774
g0
(g211
g2
Ntp775
Rp776
(dp777
g14
I00
sg32
I00
sg664
g0
(g120
g2
Ntp778
Rp779
(dp780
g14
I00
sg32
I00
sg50
I0
sg15
I00
sbsg15
I00
sg11
(lp781
g664
asbsg677
g0
(g242
g2
Ntp782
Rp783
(dp784
g14
I00
sg32
I00
sg50
I01
sg15
I00
sbsg669
g0
(g211
g2
Ntp785
Rp786
(dp787
g14
I00
sg32
I00
sg15
I00
sg664
g0
(g120
g2
Ntp788
Rp789
(dp790
g14
I00
sg32
I00
sg50
I0
sg15
I00
sbsg11
(lp791
g677
ag664
asg677
g0
(g242
g2
Ntp792
Rp793
(dp794
g14
I00
sg32
I00
sg50
I01
sg15
I00
sbsbsg712
g0
(g211
g2
Ntp795
Rp796
(dp797
g14
I00
sg32
I00
sg15
I00
sg746
g0
(g120
g2
Ntp798
Rp799
(dp800
g14
I00
sg32
I00
sg50
I1
sg15
I00
sbsg664
g0
(g120
g2
Ntp801
Rp802
(dp803
g14
I00
sg32
I00
sg50
I10000000
sg15
I00
sbsg11
(lp804
g746
ag677
ag664
asg677
g0
(g242
g2
Ntp805
Rp806
(dp807
g14
I00
sg32
I00
sg50
I01
sg15
I00
sbsbsg11
(lp808
g774
ag739
ag711
ag621
ag692
ag723
ag669
ag712
ag677
asg723
g0
(g63
g2
Ntp809
Rp810
(dp811
g14
I00
sg32
I00
sg50
g774
sg15
I00
sbsbsbsS'_Process__services'
p812
(dp813
g583
g585
sg73
g76
ssS'HcalTimeSlewEP'
p814
g0
(g427
g2
Ntp815
Rp816
(dp817
g11
(lp818
S'timeSlewParametersM3'
p819
aS'timeSlewParametersM2'
p820
ag369
asg14
I00
sg819
g0
(g397
g20
(lp821
g0
(g211
g2
Ntp822
Rp823
(dp824
g14
I00
sg32
I01
sS'tspar2'
p825
g0
(g171
g2
Ntp826
Rp827
(dp828
g14
I00
sg32
I01
sg50
F0.0
sg15
I00
sbsg15
I00
sS'tspar0'
p829
g0
(g171
g2
Ntp830
Rp831
(dp832
g14
I00
sg32
I01
sg50
F12.2999
sg15
I00
sbsS'tspar1'
p833
g0
(g171
g2
Ntp834
Rp835
(dp836
g14
I00
sg32
I01
sg50
F-2.19142
sg15
I00
sbsS'tspar1_siPM'
p837
g0
(g171
g2
Ntp838
Rp839
(dp840
g14
I00
sg32
I01
sg50
F0.0
sg15
I00
sbsS'cap'
p841
g0
(g171
g2
Ntp842
Rp843
(dp844
g14
I00
sg32
I01
sg50
F6.0
sg15
I00
sbsS'tspar0_siPM'
p845
g0
(g171
g2
Ntp846
Rp847
(dp848
g14
I00
sg32
I01
sg50
F0.0
sg15
I00
sbsg11
(lp849
g825
ag829
ag833
ag837
ag841
ag845
aS'tspar2_siPM'
p850
asg850
g0
(g171
g2
Ntp851
Rp852
(dp853
g14
I00
sg32
I01
sg50
F0.0
sg15
I00
sbsbag0
(g211
g2
Ntp854
Rp855
(dp856
g14
I00
sg32
I01
sg825
g0
(g171
g2
Ntp857
Rp858
(dp859
g14
I00
sg32
I01
sg50
F32.0
sg15
I00
sbsg15
I00
sg829
g0
(g171
g2
Ntp860
Rp861
(dp862
g14
I00
sg32
I01
sg50
F15.5
sg15
I00
sbsg833
g0
(g171
g2
Ntp863
Rp864
(dp865
g14
I00
sg32
I01
sg50
F-3.2
sg15
I00
sbsg837
g0
(g171
g2
Ntp866
Rp867
(dp868
g14
I00
sg32
I01
sg50
F0.0
sg15
I00
sbsg841
g0
(g171
g2
Ntp869
Rp870
(dp871
g14
I00
sg32
I01
sg50
F6.0
sg15
I00
sbsg845
g0
(g171
g2
Ntp872
Rp873
(dp874
g14
I00
sg32
I01
sg50
F0.0
sg15
I00
sbsg11
(lp875
g825
ag829
ag833
ag837
ag841
ag845
ag850
asg850
g0
(g171
g2
Ntp876
Rp877
(dp878
g14
I00
sg32
I01
sg50
F0.0
sg15
I00
sbsbag0
(g211
g2
Ntp879
Rp880
(dp881
g14
I00
sg32
I01
sg825
g0
(g171
g2
Ntp882
Rp883
(dp884
g14
I00
sg32
I01
sg50
F0.0
sg15
I00
sbsg15
I00
sg829
g0
(g171
g2
Ntp885
Rp886
(dp887
g14
I00
sg32
I01
sg50
F12.2999
sg15
I00
sbsg833
g0
(g171
g2
Ntp888
Rp889
(dp890
g14
I00
sg32
I01
sg50
F-2.19142
sg15
I00
sbsg837
g0
(g171
g2
Ntp891
Rp892
(dp893
g14
I00
sg32
I01
sg50
F0.0
sg15
I00
sbsg841
g0
(g171
g2
Ntp894
Rp895
(dp896
g14
I00
sg32
I01
sg50
F6.0
sg15
I00
sbsg845
g0
(g171
g2
Ntp897
Rp898
(dp899
g14
I00
sg32
I01
sg50
F0.0
sg15
I00
sbsg11
(lp900
g825
ag829
ag833
ag837
ag841
ag845
ag850
asg850
g0
(g171
g2
Ntp901
Rp902
(dp903
g14
I00
sg32
I01
sg50
F0.0
sg15
I00
sbsbag0
(g211
g2
Ntp904
Rp905
(dp906
g14
I00
sg32
I01
sg825
g0
(g171
g2
Ntp907
Rp908
(dp909
g14
I00
sg32
I01
sg50
F0.0
sg15
I00
sbsg15
I00
sg829
g0
(g171
g2
Ntp910
Rp911
(dp912
g14
I00
sg32
I01
sg50
F12.2999
sg15
I00
sbsg833
g0
(g171
g2
Ntp913
Rp914
(dp915
g14
I00
sg32
I01
sg50
F-2.19142
sg15
I00
sbsg837
g0
(g171
g2
Ntp916
Rp917
(dp918
g14
I00
sg32
I01
sg50
F0.0
sg15
I00
sbsg841
g0
(g171
g2
Ntp919
Rp920
(dp921
g14
I00
sg32
I01
sg50
F6.0
sg15
I00
sbsg845
g0
(g171
g2
Ntp922
Rp923
(dp924
g14
I00
sg32
I01
sg50
F0.0
sg15
I00
sbsg11
(lp925
g825
ag829
ag833
ag837
ag841
ag845
ag850
asg850
g0
(g171
g2
Ntp926
Rp927
(dp928
g14
I00
sg32
I01
sg50
F0.0
sg15
I00
sbsbatp929
Rp930
(dp931
g14
I00
sg32
I01
sg15
I00
sg33
I1
sbsg820
g0
(g397
g20
(lp932
g0
(g211
g2
Ntp933
Rp934
(dp935
g14
I00
sg32
I01
sg15
I00
sS'slope'
p936
g0
(g171
g2
Ntp937
Rp938
(dp939
g14
I00
sg32
I01
sg50
F-3.178648
sg15
I00
sbsS'tmax'
p940
g0
(g171
g2
Ntp941
Rp942
(dp943
g14
I00
sg32
I01
sg50
F16.0
sg15
I00
sbsS'tzero'
p944
g0
(g171
g2
Ntp945
Rp946
(dp947
g14
I00
sg32
I01
sg50
F23.960177
sg15
I00
sbsg11
(lp948
g936
ag940
ag944
asbag0
(g211
g2
Ntp949
Rp950
(dp951
g14
I00
sg32
I01
sg15
I00
sg936
g0
(g171
g2
Ntp952
Rp953
(dp954
g14
I00
sg32
I01
sg50
F-1.5610227
sg15
I00
sbsg940
g0
(g171
g2
Ntp955
Rp956
(dp957
g14
I00
sg32
I01
sg50
F10.0
sg15
I00
sbsg944
g0
(g171
g2
Ntp958
Rp959
(dp960
g14
I00
sg32
I01
sg50
F11.977461
sg15
I00
sbsg11
(lp961
g936
ag940
ag944
asbag0
(g211
g2
Ntp962
Rp963
(dp964
g14
I00
sg32
I01
sg15
I00
sg936
g0
(g171
g2
Ntp965
Rp966
(dp967
g14
I00
sg32
I01
sg50
F-1.075824
sg15
I00
sbsg940
g0
(g171
g2
Ntp968
Rp969
(dp970
g14
I00
sg32
I01
sg50
F6.25
sg15
I00
sbsg944
g0
(g171
g2
Ntp971
Rp972
(dp973
g14
I00
sg32
I01
sg50
F9.109694
sg15
I00
sbsg11
(lp974
g936
ag940
ag944
asbatp975
Rp976
(dp977
g14
I00
sg32
I01
sg15
I00
sg33
I1
sbsg15
I00
sg16
I23
sg17
S'/cvmfs/cms.cern.ch/slc7_amd64_gcc700/cms/cmssw/CMSSW_10_6_20/python/CalibCalorimetry/HcalPlugins/HcalTimeSlew_cff.py'
p978
sg369
g0
(g63
g2
Ntp979
Rp980
(dp981
g14
I00
sg32
I01
sg50
S'HBHE'
p982
sg15
I00
sbsg34
g814
sg35
g814
sbsS'CastorGeometryFromDBEP'
p983
g0
(g7
g2
Ntp984
Rp985
(dp986
g11
(lp987
g380
asg14
I00
sg15
I00
sg16
I56
sg17
g18
sg34
g983
sg380
g0
(g242
g2
Ntp988
Rp989
(dp990
g14
I00
sg32
I01
sg50
I00
sg15
I00
sbsg35
g983
sbsS'HFRecalParameterBlock'
p991
g0
(g211
g2
Ntp992
Rp993
(dp994
g14
I00
sg32
I01
sg15
I00
sS'HFdepthTwoParameterA'
p995
g0
(g216
g20
(lp996
F0.002861
aF0.004168
aF0.0064
aF0.008388
aF0.011601
aF0.014425
aF0.018633
aF0.023232
aF0.028274
aF0.035447
aF0.051579
aF0.086593
atp997
Rp998
(dp999
g14
I00
sg32
I01
sg15
I00
sbsS'HFdepthOneParameterA'
p1000
g0
(g216
g20
(lp1001
F0.004123
aF0.00602
aF0.008201
aF0.010489
aF0.013379
aF0.016997
aF0.021464
aF0.027371
aF0.034195
aF0.044807
aF0.058939
aF0.125497
atp1002
Rp1003
(dp1004
g14
I00
sg32
I01
sg15
I00
sbsS'HFdepthOneParameterB'
p1005
g0
(g216
g20
(lp1006
F-4e-06
aF-2e-06
aF0.0
aF4e-06
aF1.5e-05
aF2.6e-05
aF6.3e-05
aF8.4e-05
aF0.00016
aF0.000107
aF0.000425
aF0.000209
atp1007
Rp1008
(dp1009
g14
I00
sg32
I01
sg15
I00
sbsS'HFdepthTwoParameterB'
p1010
g0
(g216
g20
(lp1011
F-2e-06
aF-0.0
aF-7e-06
aF-6e-06
aF-2e-06
aF1e-06
aF1.9e-05
aF3.1e-05
aF6.7e-05
aF1.2e-05
aF0.000157
aF-3e-06
atp1012
Rp1013
(dp1014
g14
I00
sg32
I01
sg15
I00
sbsg11
(lp1015
g1000
ag1005
ag1010
ag995
asg34
g991
sbsS'trackerGeometryDB'
p1016
g0
(g7
g2
Ntp1017
Rp1018
(dp1019
g11
(lp1020
g369
aS'fromDDD'
p1021
ag380
aS'alignmentsLabel'
p1022
asg14
I00
sg369
g0
(g63
g2
Ntp1023
Rp1024
(dp1025
g14
I00
sg32
I01
sg50
g112
sg15
I00
sbsg15
I00
sg1022
g0
(g63
g2
Ntp1026
Rp1027
(dp1028
g14
I00
sg32
I01
sg50
g112
sg15
I00
sbsg17
g18
sg16
I56
sg34
g1016
sg1021
g0
(g242
g2
Ntp1029
Rp1030
(dp1031
g14
I00
sg32
I01
sg50
I00
sg15
I00
sbsg380
g0
(g242
g2
Ntp1032
Rp1033
(dp1034
g14
I00
sg32
I01
sg50
I01
sg15
I00
sbsg35
S'TrackerDigiGeometryESModule'
p1035
sbsS'eegeom'
p1036
g0
(g427
g2
Ntp1037
Rp1038
(dp1039
g11
(lp1040
S'iovIsRunNotTime'
p1041
aS'recordName'
p1042
aS'firstValid'
p1043
asg14
I00
sg15
I00
sg16
I6
sg1042
g0
(g63
g2
Ntp1044
Rp1045
(dp1046
g14
I00
sg32
I01
sg50
S'EcalMappingRcd'
p1047
sg15
I00
sbsg17
S'/cvmfs/cms.cern.ch/slc7_amd64_gcc700/cms/cmssw/CMSSW_10_6_20/python/Geometry/EcalMapping/EcalMappingRecord_cfi.py'
p1048
sg1043
g0
(cFWCore.ParameterSet.Types
vuint32
p1049
g20
(lp1050
I1
atp1051
Rp1052
(dp1053
g14
I00
sg32
I01
sg15
I00
sbsg34
g1036
sg1041
g0
(g242
g2
Ntp1054
Rp1055
(dp1056
g14
I00
sg32
I01
sg50
I01
sg15
I00
sbsg35
S'EmptyESSource'
p1057
sbsS'_Process__vpsets'
p1058
(dp1059
sS'EcalTrigTowerConstituentsMapBuilder'
p1060
g0
(g7
g2
Ntp1061
Rp1062
(dp1063
g11
(lp1064
S'MapFile'
p1065
asg14
I00
sg15
I00
sg1065
g0
(g63
g2
Ntp1066
Rp1067
(dp1068
g14
I00
sg32
I00
sg50
S'Geometry/EcalMapping/data/EndCap_TTMap.txt'
p1069
sg15
I00
sbsg17
g18
sg16
I56
sg34
g1060
sg35
g1060
sbsS'siStripBackPlaneCorrectionDepESProducer'
p1070
g0
(g7
g2
Ntp1071
Rp1072
(dp1073
g11
(lp1074
S'LatencyRecord'
p1075
aS'BackPlaneCorrectionDeconvMode'
p1076
aS'BackPlaneCorrectionPeakMode'
p1077
asg14
I00
sg15
I00
sg16
I56
sg17
g18
sg1075
g0
(g211
g2
Ntp1078
Rp1079
(dp1080
g14
I00
sg32
I01
sg15
I00
sg62
g0
(g63
g2
Ntp1081
Rp1082
(dp1083
g14
I00
sg32
I00
sg50
g112
sg15
I00
sbsg402
g0
(g63
g2
Ntp1084
Rp1085
(dp1086
g14
I00
sg32
I01
sg50
S'SiStripLatencyRcd'
p1087
sg15
I00
sbsg11
(lp1088
g402
ag62
asbsg1077
g0
(g211
g2
Ntp1089
Rp1090
(dp1091
g14
I00
sg32
I01
sg15
I00
sg62
g0
(g63
g2
Ntp1092
Rp1093
(dp1094
g14
I00
sg32
I00
sg50
S'peak'
p1095
sg15
I00
sbsg402
g0
(g63
g2
Ntp1096
Rp1097
(dp1098
g14
I00
sg32
I01
sg50
S'SiStripBackPlaneCorrectionRcd'
p1099
sg15
I00
sbsg11
(lp1100
g402
ag62
asbsg34
g1070
sg1076
g0
(g211
g2
Ntp1101
Rp1102
(dp1103
g14
I00
sg32
I01
sg15
I00
sg62
g0
(g63
g2
Ntp1104
Rp1105
(dp1106
g14
I00
sg32
I00
sg50
S'deconvolution'
p1107
sg15
I00
sbsg402
g0
(g63
g2
Ntp1108
Rp1109
(dp1110
g14
I00
sg32
I01
sg50
g1099
sg15
I00
sbsg11
(lp1111
g402
ag62
asbsg35
S'SiStripBackPlaneCorrectionDepESProducer'
p1112
sbsS'_Process__switchproducers'
p1113
(dp1114
sS'_Process__esprefers'
p1115
(dp1116
g85
g88
sS'es_prefer_hcalHardcode'
p1117
g0
(g86
g2
Ntp1118
Rp1119
(dp1120
g11
(lp1121
sg14
I00
sg15
I00
sg91
S'es_hardcode'
p1122
sg16
I92
sg17
g18
sg34
g1117
sg35
S'HcalHardcodeCalibrations'
p1123
sbssS'_Process__isStrict'
p1124
I00
sS'_Process__outputmodules'
p1125
(dp1126
sS'_Process__analyzers'
p1127
(dp1128
g94
g97
ssS'idealForDigiTrackerGeometry'
p1129
g0
(g7
g2
Ntp1130
Rp1131
(dp1132
g11
(lp1133
g369
ag1021
ag380
ag1022
asg14
I00
sg369
g0
(g63
g2
Ntp1134
Rp1135
(dp1136
g14
I00
sg32
I01
sg50
S'idealForDigi'
p1137
sg15
I01
sbsg15
I01
sg1022
g0
(g63
g2
Ntp1138
Rp1139
(dp1140
g14
I00
sg32
I01
sg50
S'fakeForIdeal'
p1141
sg15
I01
sbsg17
S'/cvmfs/cms.cern.ch/slc7_amd64_gcc700/cms/cmssw/CMSSW_10_6_20/python/Geometry/TrackerGeometryBuilder/idealForDigiTrackerGeometryDB_cff.py'
p1142
sg16
I8
sg34
g1129
sg1021
g0
(g242
g2
Ntp1143
Rp1144
(dp1145
g14
I00
sg32
I01
sg50
I00
sg15
I00
sbsg380
g0
(g242
g2
Ntp1146
Rp1147
(dp1148
g14
I00
sg32
I01
sg50
I00
sg15
I01
sbsg35
g1035
sbsS'_Process__looper'
p1149
NsS'_Process__tasks'
p1150
(dp1151
sS'_Process__paths'
p1152
g0
(g511
g512
(dp1153
g519
g522
stp1154
Rp1155
(dp1156
g517
(lp1157
g519
asbsS'MuonNumberingInitialization'
p1158
g0
(g7
g2
Ntp1159
Rp1160
(dp1161
g11
(lp1162
sg14
I00
sg15
I00
sg16
I56
sg17
g18
sg34
g1158
sg35
g1158
sbsg550
g533
sS'DTGeometryESModule'
p1163
g0
(g7
g2
Ntp1164
Rp1165
(dp1166
g11
(lp1167
g369
ag1021
ag380
ag1022
asg14
I00
sg369
g0
(g63
g2
Ntp1168
Rp1169
(dp1170
g14
I00
sg32
I01
sg50
g112
sg15
I00
sbsg15
I00
sg1022
g0
(g63
g2
Ntp1171
Rp1172
(dp1173
g14
I00
sg32
I01
sg50
g112
sg15
I00
sbsg17
g18
sg16
I56
sg34
g1163
sg1021
g0
(g242
g2
Ntp1174
Rp1175
(dp1176
g14
I00
sg32
I01
sg50
I00
sg15
I00
sbsg380
g0
(g242
g2
Ntp1177
Rp1178
(dp1179
g14
I00
sg32
I01
sg50
I01
sg15
I00
sbsg35
g1163
sbsS'VolumeBasedMagneticFieldESProducer'
p1180
g0
(g7
g2
Ntp1181
Rp1182
(dp1183
g11
(lp1184
S'valueOverride'
p1185
aS'debugBuilder'
p1186
ag62
asg14
I00
sg1185
g0
(g120
g2
Ntp1187
Rp1188
(dp1189
g14
I00
sg32
I01
sg50
I-1
sg15
I00
sbsg16
I56
sg17
g18
sg62
g0
(g63
g2
Ntp1190
Rp1191
(dp1192
g14
I00
sg32
I00
sg50
g112
sg15
I00
sbsg1186
g0
(g242
g2
Ntp1193
Rp1194
(dp1195
g14
I00
sg32
I00
sg50
I00
sg15
I00
sbsg34
g1180
sg35
S'VolumeBasedMagneticFieldESProducerFromDB'
p1196
sg15
I00
sbsS'CaloTopologyBuilder'
p1197
g0
(g7
g2
Ntp1198
Rp1199
(dp1200
g11
(lp1201
sg14
I00
sg15
I00
sg16
I56
sg17
g18
sg34
g1197
sg35
g1197
sbsS'SiStripRecHitMatcherESProducer'
p1202
g0
(g7
g2
Ntp1203
Rp1204
(dp1205
g11
(lp1206
S'PreFilter'
p1207
ag506
aS'NSigmaInside'
p1208
asg14
I00
sg15
I00
sg17
g18
sg506
g0
(g63
g2
Ntp1209
Rp1210
(dp1211
g14
I00
sg32
I01
sg50
S'StandardMatcher'
p1212
sg15
I00
sbsg1207
g0
(g242
g2
Ntp1213
Rp1214
(dp1215
g14
I00
sg32
I01
sg50
I00
sg15
I00
sbsg16
I56
sg1208
g0
(g171
g2
Ntp1216
Rp1217
(dp1218
g14
I00
sg32
I01
sg50
F3.0
sg15
I00
sbsg34
g1202
sg35
g1202
sbsS'_Process__psets'
p1219
(dp1220
S'maxEvents'
p1221
g0
(g211
g2
Ntp1222
Rp1223
(dp1224
g14
I00
sg32
I00
sg15
I00
sg11
(lp1225
S'input'
p1226
asg34
g1221
sg1226
g0
(g120
g2
Ntp1227
Rp1228
(dp1229
g14
I00
sg32
I00
sg50
I-1
sg15
I00
sbsbsg991
g993
sg241
g213
ssS'_Process__essources'
p1230
(dp1231
g1122
g0
(g427
g2
Ntp1232
Rp1233
(dp1234
g14
I00
sg16
I172
sS'useHEUpgrade'
p1235
g0
(g242
g2
Ntp1236
Rp1237
(dp1238
g14
I00
sg32
I01
sg50
I00
sg15
I00
sbsS'HBRecalibration'
p1239
g0
(g242
g2
Ntp1240
Rp1241
(dp1242
g14
I00
sg32
I01
sg50
I00
sg15
I00
sbsS'useLayer0Weight'
p1243
g0
(g242
g2
Ntp1244
Rp1245
(dp1246
g14
I00
sg32
I01
sg50
I00
sg15
I00
sbsS'HEmeanenergies'
p1247
g0
(cFWCore.ParameterSet.Types
FileInPath
p1248
g2
Ntp1249
Rp1250
(dp1251
g14
I00
sg32
I01
sg50
S'CalibCalorimetry/HcalPlugins/data/meanenergiesHE.txt'
p1252
sg15
I00
sbsg991
g993
sS'heUpgrade'
p1253
g0
(g211
g2
Ntp1254
Rp1255
(dp1256
g14
I00
sg32
I01
sS'qieType'
p1257
g0
(g120
g2
Ntp1258
Rp1259
(dp1260
g14
I00
sg32
I01
sg50
I2
sg15
I00
sbsg15
I00
sS'pedestalWidth'
p1261
g0
(g171
g2
Ntp1262
Rp1263
(dp1264
g14
I00
sg32
I01
sg50
F1.5
sg15
I00
sbsS'recoShape'
p1265
g0
(g120
g2
Ntp1266
Rp1267
(dp1268
g14
I00
sg32
I01
sg50
I206
sg15
I00
sbsS'zsThreshold'
p1269
g0
(g120
g2
Ntp1270
Rp1271
(dp1272
g14
I00
sg32
I01
sg50
I16
sg15
I00
sbsS'darkCurrent'
p1273
g0
(g216
g20
(lp1274
F0.01
aF0.015
atp1275
Rp1276
(dp1277
g14
I00
sg32
I01
sg15
I00
sbsS'qieOffset'
p1278
g0
(g216
g20
(lp1279
F0.0
aF0.0
aF0.0
aF0.0
atp1280
Rp1281
(dp1282
g14
I00
sg32
I01
sg15
I00
sbsS'qieSlope'
p1283
g0
(g216
g20
(lp1284
F0.05376
aF0.05376
aF0.05376
aF0.05376
atp1285
Rp1286
(dp1287
g14
I00
sg32
I01
sg15
I00
sbsS'radiationDamage'
p1288
g0
(g211
g2
Ntp1289
Rp1290
(dp1291
g14
I00
sg32
I01
sS'temperatureNew'
p1292
g0
(g171
g2
Ntp1293
Rp1294
(dp1295
g14
I00
sg32
I01
sg50
I5
sg15
I00
sbsg15
I00
sS'depVsNeutrons'
p1296
g0
(g216
g20
(lp1297
F5.543e-10
aF8.012e-10
atp1298
Rp1299
(dp1300
g14
I00
sg32
I01
sg15
I00
sbsS'temperatureBase'
p1301
g0
(g171
g2
Ntp1302
Rp1303
(dp1304
g14
I00
sg32
I01
sg50
I20
sg15
I00
sbsS'depVsTemp'
p1305
g0
(g171
g2
Ntp1306
Rp1307
(dp1308
g14
I00
sg32
I01
sg50
F0.0631
sg15
I00
sbsS'intlumiOffset'
p1309
g0
(g171
g2
Ntp1310
Rp1311
(dp1312
g14
I00
sg32
I01
sg50
I75
sg15
I00
sbsg11
(lp1313
g1292
ag1296
ag1301
ag1305
ag1309
aS'intlumiToNeutrons'
p1314
asg1314
g0
(g171
g2
Ntp1315
Rp1316
(dp1317
g14
I00
sg32
I01
sg50
F29200000.0
sg15
I00
sbsbsS'doRadiationDamage'
p1318
g0
(g242
g2
Ntp1319
Rp1320
(dp1321
g14
I00
sg32
I01
sg50
I01
sg15
I00
sbsg11
(lp1322
g1257
ag1261
ag1265
ag1269
aS'photoelectronsToAnalog'
p1323
ag1278
ag1283
ag1288
ag1318
ag1273
aS'pedestal'
p1324
aS'mcShape'
p1325
aS'gainWidth'
p1326
aS'gain'
p1327
asg1323
g0
(g171
g2
Ntp1328
Rp1329
(dp1330
g14
I00
sg32
I01
sg50
F40.0
sg15
I00
sbsg1324
g0
(g171
g2
Ntp1331
Rp1332
(dp1333
g14
I00
sg32
I01
sg50
F17.3
sg15
I00
sbsg1325
g0
(g120
g2
Ntp1334
Rp1335
(dp1336
g14
I00
sg32
I01
sg50
I206
sg15
I00
sbsg1326
g0
(g216
g20
(lp1337
I0
atp1338
Rp1339
(dp1340
g14
I00
sg32
I01
sg15
I00
sbsg1327
g0
(g216
g20
(lp1341
F0.0006252
atp1342
Rp1343
(dp1344
g14
I00
sg32
I01
sg15
I00
sbsbsg11
(lp1345
g438
ag1239
ag1243
ag1247
ag991
ag1253
aS'useIeta18depth1'
p1346
aS'killHE'
p1347
aS'useHBUpgrade'
p1348
aS'hbUpgrade'
p1349
aS'testHEPlan1'
p1350
aS'iLumi'
p1351
aS'testHFQIE10'
p1352
aS'HBmeanenergies'
p1353
ag1235
aS'GainWidthsForTrigPrims'
p1354
aS'HBreCalibCutoff'
p1355
aS'HFRecalibration'
p1356
aS'ho'
p1357
aS'hb'
p1358
aS'hf'
p1359
aS'he'
p1360
aS'HERecalibration'
p1361
aS'useHFUpgrade'
p1362
aS'HEreCalibCutoff'
p1363
aS'SiPMCharacteristics'
p1364
aS'useHOUpgrade'
p1365
aS'hfUpgrade'
p1366
asg17
S'/cvmfs/cms.cern.ch/slc7_amd64_gcc700/cms/cmssw/CMSSW_10_6_20/python/CalibCalorimetry/HcalPlugins/Hcal_Conditions_forGlobalTag_cff.py'
p1367
sg1346
g0
(g242
g2
Ntp1368
Rp1369
(dp1370
g14
I00
sg32
I01
sg50
I01
sg15
I00
sbsg1347
g0
(g242
g2
Ntp1371
Rp1372
(dp1373
g14
I00
sg32
I01
sg50
I00
sg15
I00
sbsg1348
g0
(g242
g2
Ntp1374
Rp1375
(dp1376
g14
I00
sg32
I01
sg50
I00
sg15
I00
sbsg1349
g0
(g211
g2
Ntp1377
Rp1378
(dp1379
g14
I00
sg32
I01
sg1257
g0
(g120
g2
Ntp1380
Rp1381
(dp1382
g14
I00
sg32
I01
sg50
I2
sg15
I00
sbsg15
I00
sg1261
g0
(g171
g2
Ntp1383
Rp1384
(dp1385
g14
I00
sg32
I01
sg50
F1.5
sg15
I00
sbsg1265
g0
(g120
g2
Ntp1386
Rp1387
(dp1388
g14
I00
sg32
I01
sg50
I206
sg15
I00
sbsg1269
g0
(g120
g2
Ntp1389
Rp1390
(dp1391
g14
I00
sg32
I01
sg50
I16
sg15
I00
sbsg1273
g0
(g216
g20
(lp1392
F0.01
aF0.015
atp1393
Rp1394
(dp1395
g14
I00
sg32
I01
sg15
I00
sbsg1278
g0
(g216
g20
(lp1396
F0.0
aF0.0
aF0.0
aF0.0
atp1397
Rp1398
(dp1399
g14
I00
sg32
I01
sg15
I00
sbsg1283
g0
(g216
g20
(lp1400
F0.05376
aF0.05376
aF0.05376
aF0.05376
atp1401
Rp1402
(dp1403
g14
I00
sg32
I01
sg15
I00
sbsg1288
g0
(g211
g2
Ntp1404
Rp1405
(dp1406
g14
I00
sg32
I01
sg1292
g0
(g171
g2
Ntp1407
Rp1408
(dp1409
g14
I00
sg32
I01
sg50
I-5
sg15
I00
sbsg15
I00
sg1296
g0
(g216
g20
(lp1410
F5.543e-10
aF8.012e-10
atp1411
Rp1412
(dp1413
g14
I00
sg32
I01
sg15
I00
sbsg1301
g0
(g171
g2
Ntp1414
Rp1415
(dp1416
g14
I00
sg32
I01
sg50
I20
sg15
I00
sbsg1305
g0
(g171
g2
Ntp1417
Rp1418
(dp1419
g14
I00
sg32
I01
sg50
F0.0631
sg15
I00
sbsg1309
g0
(g171
g2
Ntp1420
Rp1421
(dp1422
g14
I00
sg32
I01
sg50
I150
sg15
I00
sbsg11
(lp1423
g1292
ag1296
ag1301
ag1305
ag1309
ag1314
asg1314
g0
(g171
g2
Ntp1424
Rp1425
(dp1426
g14
I00
sg32
I01
sg50
F367000000.0
sg15
I00
sbsbsg1318
g0
(g242
g2
Ntp1427
Rp1428
(dp1429
g14
I00
sg32
I01
sg50
I01
sg15
I00
sbsg11
(lp1430
g1257
ag1261
ag1265
ag1269
ag1323
ag1278
ag1283
ag1288
ag1318
ag1273
ag1324
ag1325
ag1326
ag1327
asg1323
g0
(g171
g2
Ntp1431
Rp1432
(dp1433
g14
I00
sg32
I01
sg50
F40.0
sg15
I00
sbsg1324
g0
(g171
g2
Ntp1434
Rp1435
(dp1436
g14
I00
sg32
I01
sg50
F17.3
sg15
I00
sbsg1325
g0
(g120
g2
Ntp1437
Rp1438
(dp1439
g14
I00
sg32
I01
sg50
I206
sg15
I00
sbsg1326
g0
(g216
g20
(lp1440
I0
atp1441
Rp1442
(dp1443
g14
I00
sg32
I01
sg15
I00
sbsg1327
g0
(g216
g20
(lp1444
F0.0006252
atp1445
Rp1446
(dp1447
g14
I00
sg32
I01
sg15
I00
sbsbsg35
g1123
sg1350
g0
(g242
g2
Ntp1448
Rp1449
(dp1450
g14
I00
sg32
I01
sg50
I00
sg15
I00
sbsg1351
g0
(g171
g2
Ntp1451
Rp1452
(dp1453
g14
I00
sg32
I01
sg50
F-1.0
sg15
I00
sbsg1352
g0
(g242
g2
Ntp1454
Rp1455
(dp1456
g14
I00
sg32
I01
sg50
I00
sg15
I00
sbsg1353
g0
(g1248
g2
Ntp1457
Rp1458
(dp1459
g14
I00
sg32
I01
sg50
S'CalibCalorimetry/HcalPlugins/data/meanenergiesHB.txt'
p1460
sg15
I00
sbsg438
g0
(g19
g20
(lp1461
S'GainWidths'
p1462
atp1463
Rp1464
(dp1465
g14
I00
sg32
I00
sg15
I00
sg33
I1
sbsg1354
g0
(g242
g2
Ntp1466
Rp1467
(dp1468
g14
I00
sg32
I01
sg50
I00
sg15
I00
sbsg1355
g0
(g171
g2
Ntp1469
Rp1470
(dp1471
g14
I00
sg32
I01
sg50
F20.0
sg15
I00
sbsg1356
g0
(g242
g2
Ntp1472
Rp1473
(dp1474
g14
I00
sg32
I01
sg50
I00
sg15
I00
sbsg1357
g0
(g211
g2
Ntp1475
Rp1476
(dp1477
g14
I00
sg32
I01
sg1257
g0
(g120
g2
Ntp1478
Rp1479
(dp1480
g14
I00
sg32
I01
sg50
I0
sg15
I00
sbsg15
I00
sg1261
g0
(g171
g2
Ntp1481
Rp1482
(dp1483
g14
I00
sg32
I01
sg50
F0.6285
sg15
I00
sbsg1265
g0
(g120
g2
Ntp1484
Rp1485
(dp1486
g14
I00
sg32
I01
sg50
I201
sg15
I00
sbsg1269
g0
(g120
g2
Ntp1487
Rp1488
(dp1489
g14
I00
sg32
I01
sg50
I24
sg15
I00
sbsg1273
g0
(g216
g20
(lp1490
F0.0
atp1491
Rp1492
(dp1493
g14
I00
sg32
I01
sg15
I00
sbsg1278
g0
(g216
g20
(lp1494
F-0.44
aF1.4
aF7.1
aF38.5
atp1495
Rp1496
(dp1497
g14
I00
sg32
I01
sg15
I00
sbsg1283
g0
(g216
g20
(lp1498
F0.907
aF0.915
aF0.92
aF0.921
atp1499
Rp1500
(dp1501
g14
I00
sg32
I01
sg15
I00
sbsg1327
g0
(g216
g20
(lp1502
F0.006
aF0.0087
atp1503
Rp1504
(dp1505
g14
I00
sg32
I01
sg15
I00
sbsg1318
g0
(g242
g2
Ntp1506
Rp1507
(dp1508
g14
I00
sg32
I01
sg50
I00
sg15
I00
sbsg11
(lp1509
g1257
ag1261
ag1265
ag1269
ag1323
ag1278
ag1283
ag1327
ag1318
ag1273
ag1324
ag1325
ag1326
asg1323
g0
(g171
g2
Ntp1510
Rp1511
(dp1512
g14
I00
sg32
I01
sg50
F4.0
sg15
I00
sbsg1324
g0
(g171
g2
Ntp1513
Rp1514
(dp1515
g14
I00
sg32
I01
sg50
F12.06
sg15
I00
sbsg1325
g0
(g120
g2
Ntp1516
Rp1517
(dp1518
g14
I00
sg32
I01
sg50
I201
sg15
I00
sbsg1326
g0
(g216
g20
(lp1519
F0.0
aF0.0
atp1520
Rp1521
(dp1522
g14
I00
sg32
I01
sg15
I00
sbsbsg1358
g0
(g211
g2
Ntp1523
Rp1524
(dp1525
g14
I00
sg32
I01
sg1257
g0
(g120
g2
Ntp1526
Rp1527
(dp1528
g14
I00
sg32
I01
sg50
I0
sg15
I00
sbsg15
I00
sg1261
g0
(g171
g2
Ntp1529
Rp1530
(dp1531
g14
I00
sg32
I01
sg50
F0.809
sg15
I00
sbsg1265
g0
(g120
g2
Ntp1532
Rp1533
(dp1534
g14
I00
sg32
I01
sg50
I105
sg15
I00
sbsg1269
g0
(g120
g2
Ntp1535
Rp1536
(dp1537
g14
I00
sg32
I01
sg50
I8
sg15
I00
sbsg1273
g0
(g216
g20
(lp1538
F0.0
atp1539
Rp1540
(dp1541
g14
I00
sg32
I01
sg15
I00
sbsg1278
g0
(g216
g20
(lp1542
F-0.49
aF1.8
aF7.2
aF37.9
atp1543
Rp1544
(dp1545
g14
I00
sg32
I01
sg15
I00
sbsg1283
g0
(g216
g20
(lp1546
F0.912
aF0.917
aF0.922
aF0.923
atp1547
Rp1548
(dp1549
g14
I00
sg32
I01
sg15
I00
sbsg1327
g0
(g216
g20
(lp1550
F0.19
atp1551
Rp1552
(dp1553
g14
I00
sg32
I01
sg15
I00
sbsg1318
g0
(g242
g2
Ntp1554
Rp1555
(dp1556
g14
I00
sg32
I01
sg50
I00
sg15
I00
sbsg11
(lp1557
g1257
ag1261
ag1265
ag1269
ag1323
ag1278
ag1283
ag1327
ag1318
ag1273
ag1324
ag1325
ag1326
asg1323
g0
(g171
g2
Ntp1558
Rp1559
(dp1560
g14
I00
sg32
I01
sg50
F0.3305
sg15
I00
sbsg1324
g0
(g171
g2
Ntp1561
Rp1562
(dp1563
g14
I00
sg32
I01
sg50
F3.285
sg15
I00
sbsg1325
g0
(g120
g2
Ntp1564
Rp1565
(dp1566
g14
I00
sg32
I01
sg50
I125
sg15
I00
sbsg1326
g0
(g216
g20
(lp1567
F0.0
atp1568
Rp1569
(dp1570
g14
I00
sg32
I01
sg15
I00
sbsbsg1359
g0
(g211
g2
Ntp1571
Rp1572
(dp1573
g14
I00
sg32
I01
sg1257
g0
(g120
g2
Ntp1574
Rp1575
(dp1576
g14
I00
sg32
I01
sg50
I0
sg15
I00
sbsg15
I00
sg1261
g0
(g171
g2
Ntp1577
Rp1578
(dp1579
g14
I00
sg32
I01
sg50
F2.516
sg15
I00
sbsg1265
g0
(g120
g2
Ntp1580
Rp1581
(dp1582
g14
I00
sg32
I01
sg50
I301
sg15
I00
sbsg1269
g0
(g120
g2
Ntp1583
Rp1584
(dp1585
g14
I00
sg32
I01
sg50
I-9999
sg15
I00
sbsg1273
g0
(g216
g20
(lp1586
F0.0
atp1587
Rp1588
(dp1589
g14
I00
sg32
I01
sg15
I00
sbsg1278
g0
(g216
g20
(lp1590
F-0.87
aF1.4
aF7.8
aF-29.6
atp1591
Rp1592
(dp1593
g14
I00
sg32
I01
sg15
I00
sbsg1283
g0
(g216
g20
(lp1594
F0.359
aF0.358
aF0.36
aF0.367
atp1595
Rp1596
(dp1597
g14
I00
sg32
I01
sg15
I00
sbsg1327
g0
(g216
g20
(lp1598
F0.14
aF0.135
atp1599
Rp1600
(dp1601
g14
I00
sg32
I01
sg15
I00
sbsg1318
g0
(g242
g2
Ntp1602
Rp1603
(dp1604
g14
I00
sg32
I01
sg50
I00
sg15
I00
sbsg11
(lp1605
g1257
ag1261
ag1265
ag1269
ag1323
ag1278
ag1283
ag1327
ag1318
ag1273
ag1324
ag1325
ag1326
asg1323
g0
(g171
g2
Ntp1606
Rp1607
(dp1608
g14
I00
sg32
I01
sg50
F0.0
sg15
I00
sbsg1324
g0
(g171
g2
Ntp1609
Rp1610
(dp1611
g14
I00
sg32
I01
sg50
F9.354
sg15
I00
sbsg1325
g0
(g120
g2
Ntp1612
Rp1613
(dp1614
g14
I00
sg32
I01
sg50
I301
sg15
I00
sbsg1326
g0
(g216
g20
(lp1615
F0.0
aF0.0
atp1616
Rp1617
(dp1618
g14
I00
sg32
I01
sg15
I00
sbsbsg1360
g0
(g211
g2
Ntp1619
Rp1620
(dp1621
g14
I00
sg32
I01
sg1257
g0
(g120
g2
Ntp1622
Rp1623
(dp1624
g14
I00
sg32
I01
sg50
I0
sg15
I00
sbsg15
I00
sg1261
g0
(g171
g2
Ntp1625
Rp1626
(dp1627
g14
I00
sg32
I01
sg50
F0.9698
sg15
I00
sbsg1265
g0
(g120
g2
Ntp1628
Rp1629
(dp1630
g14
I00
sg32
I01
sg50
I105
sg15
I00
sbsg1269
g0
(g120
g2
Ntp1631
Rp1632
(dp1633
g14
I00
sg32
I01
sg50
I9
sg15
I00
sbsg1273
g0
(g216
g20
(lp1634
F0.0
atp1635
Rp1636
(dp1637
g14
I00
sg32
I01
sg15
I00
sbsg1278
g0
(g216
g20
(lp1638
F-0.38
aF2.0
aF7.6
aF39.6
atp1639
Rp1640
(dp1641
g14
I00
sg32
I01
sg15
I00
sbsg1283
g0
(g216
g20
(lp1642
F0.912
aF0.916
aF0.92
aF0.922
atp1643
Rp1644
(dp1645
g14
I00
sg32
I01
sg15
I00
sbsg1327
g0
(g216
g20
(lp1646
F0.23
atp1647
Rp1648
(dp1649
g14
I00
sg32
I01
sg15
I00
sbsg1318
g0
(g242
g2
Ntp1650
Rp1651
(dp1652
g14
I00
sg32
I01
sg50
I00
sg15
I00
sbsg11
(lp1653
g1257
ag1261
ag1265
ag1269
ag1323
ag1278
ag1283
ag1327
ag1318
ag1273
ag1324
ag1325
ag1326
asg1323
g0
(g171
g2
Ntp1654
Rp1655
(dp1656
g14
I00
sg32
I01
sg50
F0.3305
sg15
I00
sbsg1324
g0
(g171
g2
Ntp1657
Rp1658
(dp1659
g14
I00
sg32
I01
sg50
F3.163
sg15
I00
sbsg1325
g0
(g120
g2
Ntp1660
Rp1661
(dp1662
g14
I00
sg32
I01
sg50
I125
sg15
I00
sbsg1326
g0
(g216
g20
(lp1663
I0
atp1664
Rp1665
(dp1666
g14
I00
sg32
I01
sg15
I00
sbsbsg15
I00
sg1361
g0
(g242
g2
Ntp1667
Rp1668
(dp1669
g14
I00
sg32
I01
sg50
I00
sg15
I00
sbsg1362
g0
(g242
g2
Ntp1670
Rp1671
(dp1672
g14
I00
sg32
I01
sg50
I00
sg15
I00
sbsg1363
g0
(g171
g2
Ntp1673
Rp1674
(dp1675
g14
I00
sg32
I01
sg50
F20.0
sg15
I00
sbsg1364
g0
(g397
g20
(lp1676
g0
(g211
g2
Ntp1677
Rp1678
(dp1679
g14
I00
sg32
I01
sg15
I00
sS'crosstalk'
p1680
g0
(g171
g2
Ntp1681
Rp1682
(dp1683
g14
I00
sg32
I01
sg50
F0.0
sg15
I00
sbsS'nonlin1'
p1684
g0
(g171
g2
Ntp1685
Rp1686
(dp1687
g14
I00
sg32
I01
sg50
F1.0
sg15
I00
sbsS'nonlin3'
p1688
g0
(g171
g2
Ntp1689
Rp1690
(dp1691
g14
I00
sg32
I01
sg50
F0.0
sg15
I00
sbsS'nonlin2'
p1692
g0
(g171
g2
Ntp1693
Rp1694
(dp1695
g14
I00
sg32
I01
sg50
F0.0
sg15
I00
sbsg11
(lp1696
g1684
ag1688
ag1692
aS'pixels'
p1697
ag1680
asg1697
g0
(g120
g2
Ntp1698
Rp1699
(dp1700
g14
I00
sg32
I01
sg50
I36000
sg15
I00
sbsbag0
(g211
g2
Ntp1701
Rp1702
(dp1703
g14
I00
sg32
I01
sg15
I00
sg1680
g0
(g171
g2
Ntp1704
Rp1705
(dp1706
g14
I00
sg32
I01
sg50
F0.0
sg15
I00
sbsg1684
g0
(g171
g2
Ntp1707
Rp1708
(dp1709
g14
I00
sg32
I01
sg50
F1.0
sg15
I00
sbsg1688
g0
(g171
g2
Ntp1710
Rp1711
(dp1712
g14
I00
sg32
I01
sg50
F0.0
sg15
I00
sbsg1692
g0
(g171
g2
Ntp1713
Rp1714
(dp1715
g14
I00
sg32
I01
sg50
F0.0
sg15
I00
sbsg11
(lp1716
g1684
ag1688
ag1692
ag1697
ag1680
asg1697
g0
(g120
g2
Ntp1717
Rp1718
(dp1719
g14
I00
sg32
I01
sg50
I2500
sg15
I00
sbsbag0
(g211
g2
Ntp1720
Rp1721
(dp1722
g14
I00
sg32
I01
sg15
I00
sg1680
g0
(g171
g2
Ntp1723
Rp1724
(dp1725
g14
I00
sg32
I01
sg50
F0.17
sg15
I00
sbsg1684
g0
(g171
g2
Ntp1726
Rp1727
(dp1728
g14
I00
sg32
I01
sg50
F1.00985
sg15
I00
sbsg1688
g0
(g171
g2
Ntp1729
Rp1730
(dp1731
g14
I00
sg32
I01
sg50
F2.86282e-10
sg15
I00
sbsg1692
g0
(g171
g2
Ntp1732
Rp1733
(dp1734
g14
I00
sg32
I01
sg50
F7.84089e-06
sg15
I00
sbsg11
(lp1735
g1684
ag1688
ag1692
ag1697
ag1680
asg1697
g0
(g120
g2
Ntp1736
Rp1737
(dp1738
g14
I00
sg32
I01
sg50
I27370
sg15
I00
sbsbag0
(g211
g2
Ntp1739
Rp1740
(dp1741
g14
I00
sg32
I01
sg15
I00
sg1680
g0
(g171
g2
Ntp1742
Rp1743
(dp1744
g14
I00
sg32
I01
sg50
F0.196
sg15
I00
sbsg1684
g0
(g171
g2
Ntp1745
Rp1746
(dp1747
g14
I00
sg32
I01
sg50
F1.00546
sg15
I00
sbsg1688
g0
(g171
g2
Ntp1748
Rp1749
(dp1750
g14
I00
sg32
I01
sg50
F1.27011e-10
sg15
I00
sbsg1692
g0
(g171
g2
Ntp1751
Rp1752
(dp1753
g14
I00
sg32
I01
sg50
F6.40239e-06
sg15
I00
sbsg11
(lp1754
g1684
ag1688
ag1692
ag1697
ag1680
asg1697
g0
(g120
g2
Ntp1755
Rp1756
(dp1757
g14
I00
sg32
I01
sg50
I38018
sg15
I00
sbsbag0
(g211
g2
Ntp1758
Rp1759
(dp1760
g14
I00
sg32
I01
sg15
I00
sg1680
g0
(g171
g2
Ntp1761
Rp1762
(dp1763
g14
I00
sg32
I01
sg50
F0.17
sg15
I00
sbsg1684
g0
(g171
g2
Ntp1764
Rp1765
(dp1766
g14
I00
sg32
I01
sg50
F1.00985
sg15
I00
sbsg1688
g0
(g171
g2
Ntp1767
Rp1768
(dp1769
g14
I00
sg32
I01
sg50
F2.86282e-10
sg15
I00
sbsg1692
g0
(g171
g2
Ntp1770
Rp1771
(dp1772
g14
I00
sg32
I01
sg50
F7.84089e-06
sg15
I00
sbsg11
(lp1773
g1684
ag1688
ag1692
ag1697
ag1680
asg1697
g0
(g120
g2
Ntp1774
Rp1775
(dp1776
g14
I00
sg32
I01
sg50
I27370
sg15
I00
sbsbag0
(g211
g2
Ntp1777
Rp1778
(dp1779
g14
I00
sg32
I01
sg15
I00
sg1680
g0
(g171
g2
Ntp1780
Rp1781
(dp1782
g14
I00
sg32
I01
sg50
F0.196
sg15
I00
sbsg1684
g0
(g171
g2
Ntp1783
Rp1784
(dp1785
g14
I00
sg32
I01
sg50
F1.00546
sg15
I00
sbsg1688
g0
(g171
g2
Ntp1786
Rp1787
(dp1788
g14
I00
sg32
I01
sg50
F1.27011e-10
sg15
I00
sbsg1692
g0
(g171
g2
Ntp1789
Rp1790
(dp1791
g14
I00
sg32
I01
sg50
F6.40239e-06
sg15
I00
sbsg11
(lp1792
g1684
ag1688
ag1692
ag1697
ag1680
asg1697
g0
(g120
g2
Ntp1793
Rp1794
(dp1795
g14
I00
sg32
I01
sg50
I38018
sg15
I00
sbsbag0
(g211
g2
Ntp1796
Rp1797
(dp1798
g14
I00
sg32
I01
sg15
I00
sg1680
g0
(g171
g2
Ntp1799
Rp1800
(dp1801
g14
I00
sg32
I01
sg50
F0.0
sg15
I00
sbsg1684
g0
(g171
g2
Ntp1802
Rp1803
(dp1804
g14
I00
sg32
I01
sg50
F1.0
sg15
I00
sbsg1688
g0
(g171
g2
Ntp1805
Rp1806
(dp1807
g14
I00
sg32
I01
sg50
F0.0
sg15
I00
sbsg1692
g0
(g171
g2
Ntp1808
Rp1809
(dp1810
g14
I00
sg32
I01
sg50
F0.0
sg15
I00
sbsg11
(lp1811
g1684
ag1688
ag1692
ag1697
ag1680
asg1697
g0
(g120
g2
Ntp1812
Rp1813
(dp1814
g14
I00
sg32
I01
sg50
I0
sg15
I00
sbsbatp1815
Rp1816
(dp1817
g14
I00
sg32
I01
sg15
I00
sg33
I1
sbsg34
g1122
sg1365
g0
(g242
g2
Ntp1818
Rp1819
(dp1820
g14
I00
sg32
I01
sg50
I01
sg15
I00
sbsg1366
g0
(g211
g2
Ntp1821
Rp1822
(dp1823
g14
I00
sg32
I01
sg1257
g0
(g120
g2
Ntp1824
Rp1825
(dp1826
g14
I00
sg32
I01
sg50
I1
sg15
I00
sbsg15
I00
sg1261
g0
(g171
g2
Ntp1827
Rp1828
(dp1829
g14
I00
sg32
I01
sg50
F3.33
sg15
I00
sbsg1265
g0
(g120
g2
Ntp1830
Rp1831
(dp1832
g14
I00
sg32
I01
sg50
I301
sg15
I00
sbsg1269
g0
(g120
g2
Ntp1833
Rp1834
(dp1835
g14
I00
sg32
I01
sg50
I-9999
sg15
I00
sbsg1273
g0
(g216
g20
(lp1836
F0.0
atp1837
Rp1838
(dp1839
g14
I00
sg32
I01
sg15
I00
sbsg1278
g0
(g216
g20
(lp1840
F0.0697
aF-0.7405
aF12.38
aF-671.9
atp1841
Rp1842
(dp1843
g14
I00
sg32
I01
sg15
I00
sbsg1283
g0
(g216
g20
(lp1844
F0.297
aF0.298
aF0.298
aF0.313
atp1845
Rp1846
(dp1847
g14
I00
sg32
I01
sg15
I00
sbsg1327
g0
(g216
g20
(lp1848
F0.14
aF0.135
atp1849
Rp1850
(dp1851
g14
I00
sg32
I01
sg15
I00
sbsg1318
g0
(g242
g2
Ntp1852
Rp1853
(dp1854
g14
I00
sg32
I01
sg50
I00
sg15
I00
sbsg11
(lp1855
g1257
ag1261
ag1265
ag1269
ag1323
ag1278
ag1283
ag1327
ag1318
ag1273
ag1324
ag1325
ag1326
asg1323
g0
(g171
g2
Ntp1856
Rp1857
(dp1858
g14
I00
sg32
I01
sg50
F0.0
sg15
I00
sbsg1324
g0
(g171
g2
Ntp1859
Rp1860
(dp1861
g14
I00
sg32
I01
sg50
F13.33
sg15
I00
sbsg1325
g0
(g120
g2
Ntp1862
Rp1863
(dp1864
g14
I00
sg32
I01
sg50
I301
sg15
I00
sbsg1326
g0
(g216
g20
(lp1865
F0.0
aF0.0
atp1866
Rp1867
(dp1868
g14
I00
sg32
I01
sg15
I00
sbsbsbsg1036
g1038
sg92
g429
sg814
g816
ssg55
g41
sg241
g213
sg1221
g1223
sS'CSCGeometryESModule'
p1869
g0
(g7
g2
Ntp1870
Rp1871
(dp1872
g11
(lp1873
g369
aS'useDDD'
p1874
aS'debugV'
p1875
aS'useGangedStripsInME1a'
p1876
ag1022
aS'useOnlyWiresInME1a'
p1877
aS'useRealWireGeometry'
p1878
aS'useCentreTIOffsets'
p1879
ag380
asg14
I00
sg369
g0
(g63
g2
Ntp1880
Rp1881
(dp1882
g14
I00
sg32
I01
sg50
g112
sg15
I00
sbsg15
I00
sg1875
g0
(g242
g2
Ntp1883
Rp1884
(dp1885
g14
I00
sg32
I00
sg50
I00
sg15
I00
sbsg17
g18
sg1876
g0
(g242
g2
Ntp1886
Rp1887
(dp1888
g14
I00
sg32
I01
sg50
I01
sg15
I00
sbsg1022
g0
(g63
g2
Ntp1889
Rp1890
(dp1891
g14
I00
sg32
I01
sg50
g112
sg15
I00
sbsg1877
g0
(g242
g2
Ntp1892
Rp1893
(dp1894
g14
I00
sg32
I01
sg50
I00
sg15
I00
sbsg1874
g0
(g242
g2
Ntp1895
Rp1896
(dp1897
g14
I00
sg32
I01
sg50
I00
sg15
I00
sbsg16
I56
sg1879
g0
(g242
g2
Ntp1898
Rp1899
(dp1900
g14
I00
sg32
I01
sg50
I00
sg15
I00
sbsg34
g1869
sg1878
g0
(g242
g2
Ntp1901
Rp1902
(dp1903
g14
I00
sg32
I01
sg50
I01
sg15
I00
sbsg380
g0
(g242
g2
Ntp1904
Rp1905
(dp1906
g14
I00
sg32
I01
sg50
I01
sg15
I00
sbsg35
g1869
sbsS'EcalBarrelGeometryFromDBEP'
p1907
g0
(g7
g2
Ntp1908
Rp1909
(dp1910
g11
(lp1911
g380
asg14
I00
sg15
I01
sg16
I56
sg17
g18
sg34
g1907
sg380
g0
(g242
g2
Ntp1912
Rp1913
(dp1914
g14
I00
sg32
I01
sg50
I01
sg15
I01
sbsg35
g1907
sbsS'trackerNumberingGeometryDB'
p1915
g0
(g7
g2
Ntp1916
Rp1917
(dp1918
g11
(lp1919
g369
ag1021
asg14
I00
sg369
g0
(g63
g2
Ntp1920
Rp1921
(dp1922
g14
I00
sg32
I01
sg50
g112
sg15
I00
sbsg15
I00
sg16
I56
sg17
g18
sg34
g1915
sg1021
g0
(g242
g2
Ntp1923
Rp1924
(dp1925
g14
I00
sg32
I01
sg50
I00
sg15
I00
sbsg35
S'TrackerGeometricDetESModule'
p1926
sbsS'_Process__name'
p1927
S'FEVTAnalyzer'
p1928
sg1122
g1233
sS'_cloneToObjectDict'
p1929
(dp1930
I140113822294864
g0
(g7
g2
Ntp1931
Rp1932
(dp1933
g11
(lp1934
g380
asg14
I00
sg15
I00
sg16
I56
sg17
g18
sg34
S'ZdcGeometryFromDBEP'
p1935
sg380
g0
(g242
g2
Ntp1936
Rp1937
(dp1938
g14
I00
sg32
I01
sg50
I00
sg15
I00
sbsg35
g1935
sbsI140113822266256
g0
(g7
g2
Ntp1939
Rp1940
(dp1941
g11
(lp1942
g369
asg14
I00
sg369
g0
(g63
g2
Ntp1943
Rp1944
(dp1945
g14
I00
sg32
I01
sg50
g112
sg15
I00
sbsg15
I00
sg16
I56
sg17
g18
sg34
S'trackerTopology'
p1946
sg35
S'TrackerTopologyEP'
p1947
sbsI140113821877200
g88
sI140113821836304
g0
(g7
g2
Ntp1948
Rp1949
(dp1950
g11
(lp1951
g369
ag1021
ag380
ag1022
asg14
I00
sg369
g0
(g63
g2
Ntp1952
Rp1953
(dp1954
g14
I00
sg32
I01
sg50
g1137
sg15
I01
sbsg15
I01
sg1022
g0
(g63
g2
Ntp1955
Rp1956
(dp1957
g14
I00
sg32
I01
sg50
g1141
sg15
I01
sbsg17
S'/cvmfs/cms.cern.ch/slc7_amd64_gcc700/cms/cmssw/CMSSW_10_6_20/python/Geometry/DTGeometryBuilder/idealForDigiDtGeometryDB_cff.py'
p1958
sg16
I8
sg34
S'idealForDigiDTGeometry'
p1959
sg1021
g0
(g242
g2
Ntp1960
Rp1961
(dp1962
g14
I00
sg32
I01
sg50
I00
sg15
I00
sbsg380
g0
(g242
g2
Ntp1963
Rp1964
(dp1965
g14
I00
sg32
I01
sg50
I00
sg15
I01
sbsg35
g1163
sbsI140113821940304
g0
(g7
g2
Ntp1966
Rp1967
(dp1968
g11
(lp1969
S'file'
p1970
aS'dump'
p1971
asg14
I00
sg15
I00
sg1971
g0
(g19
g20
(lp1972
g112
atp1973
Rp1974
(dp1975
g14
I00
sg32
I00
sg15
I00
sg33
I1
sbsg16
I56
sg17
g18
sg1970
g0
(g63
g2
Ntp1976
Rp1977
(dp1978
g14
I00
sg32
I00
sg50
g112
sg15
I00
sbsg34
S'hcal_db_producer'
p1979
sg35
S'HcalDbProducer'
p1980
sbsI140113822266448
g572
sI140113822295184
g985
sI140113821545488
g0
(g7
g2
Ntp1981
Rp1982
(dp1983
g11
(lp1984
S'ComponentType'
p1985
ag506
ag177
asg14
I00
sg15
I00
sg177
g0
(g211
g2
Ntp1986
Rp1987
(dp1988
g14
I00
sg32
I01
sg15
I00
sg11
(lp1989
sbsg16
I56
sg506
g0
(g63
g2
Ntp1990
Rp1991
(dp1992
g14
I00
sg32
I01
sg50
S'stripCPE'
p1993
sg15
I00
sbsg1985
g0
(g63
g2
Ntp1994
Rp1995
(dp1996
g14
I00
sg32
I01
sg50
S'SimpleStripCPE'
p1997
sg15
I00
sbsg17
g18
sg34
S'stripCPEESProducer'
p1998
sg35
S'StripCPEESProducer'
p1999
sbsI140113821998352
g1233
sI140113821624848
g97
sI140113822267280
g9
sI140113822266832
g1199
sI140113822041616
g0
(g7
g2
Ntp2000
Rp2001
(dp2002
g11
(lp2003
g369
asg14
I00
sg369
g0
(g63
g2
Ntp2004
Rp2005
(dp2006
g14
I00
sg32
I01
sg50
g112
sg15
I00
sbsg15
I00
sg16
I56
sg17
g18
sg34
S'CastorDbProducer'
p2007
sg35
g2007
sbsI140113821877712
g429
sI140113821584656
g213
sI140113822295504
g1062
sI140113822297040
g0
(g7
g2
Ntp2008
Rp2009
(dp2010
g11
(lp2011
g369
asg14
I00
sg369
g0
(g63
g2
Ntp2012
Rp2013
(dp2014
g14
I00
sg32
I01
sg50
g112
sg15
I00
sbsg15
I00
sg16
I56
sg17
g18
sg34
S'hcalDDDRecConstants'
p2015
sg35
S'HcalDDDRecConstantsESModule'
p2016
sbsI140113821939536
g816
sI140113821837328
g58
sI140113822267792
g0
(g7
g2
Ntp2017
Rp2018
(dp2019
g11
(lp2020
g380
asg14
I00
sg15
I01
sg16
I56
sg17
g18
sg34
S'EcalPreshowerGeometryFromDBEP'
p2021
sg380
g0
(g242
g2
Ntp2022
Rp2023
(dp2024
g14
I00
sg32
I01
sg50
I01
sg15
I01
sbsg35
g2021
sbsI140113822296208
g1038
sI140113822267664
g577
sI140113821837712
g1160
sI140113821546960
g1204
sI140113822267920
g1909
sI140113822239312
g1871
sI140113822296720
g366
sI140113821547984
g1223
sI140113821545616
g0
(g7
g2
Ntp2025
Rp2026
(dp2027
g11
(lp2028
g1985
ag506
ag177
asg14
I00
sg15
I01
sg177
g0
(g211
g2
Ntp2029
Rp2030
(dp2031
g14
I00
sg32
I01
sS'maxChgOneMIP'
p2032
g0
(g171
g2
Ntp2033
Rp2034
(dp2035
g14
I00
sg32
I01
sg50
F6000.0
sg15
I00
sbsS'mLC_P2'
p2036
g0
(g171
g2
Ntp2037
Rp2038
(dp2039
g14
I00
sg32
I01
sg50
F0.3
sg15
I00
sbsS'mLC_P1'
p2040
g0
(g171
g2
Ntp2041
Rp2042
(dp2043
g14
I00
sg32
I01
sg50
F0.618
sg15
I00
sbsS'mLC_P0'
p2044
g0
(g171
g2
Ntp2045
Rp2046
(dp2047
g14
I00
sg32
I01
sg50
F-0.326
sg15
I00
sbsS'useLegacyError'
p2048
g0
(g242
g2
Ntp2049
Rp2050
(dp2051
g14
I00
sg32
I01
sg50
I00
sg15
I00
sbsS'mTIB_P1'
p2052
g0
(g171
g2
Ntp2053
Rp2054
(dp2055
g14
I00
sg32
I01
sg50
F0.202
sg15
I00
sbsS'mTEC_P1'
p2056
g0
(g171
g2
Ntp2057
Rp2058
(dp2059
g14
I00
sg32
I01
sg50
F0.471
sg15
I00
sbsS'mTEC_P0'
p2060
g0
(g171
g2
Ntp2061
Rp2062
(dp2063
g14
I00
sg32
I01
sg50
F-1.885
sg15
I00
sbsS'mTOB_P0'
p2064
g0
(g171
g2
Ntp2065
Rp2066
(dp2067
g14
I00
sg32
I01
sg50
F-1.026
sg15
I00
sbsS'mTOB_P1'
p2068
g0
(g171
g2
Ntp2069
Rp2070
(dp2071
g14
I00
sg32
I01
sg50
F0.253
sg15
I00
sbsS'mTIB_P0'
p2072
g0
(g171
g2
Ntp2073
Rp2074
(dp2075
g14
I00
sg32
I01
sg50
F-0.742
sg15
I00
sbsg11
(lp2076
g2032
ag2036
ag2040
ag2044
ag2048
ag2056
ag2060
ag2064
ag2068
ag2072
ag2052
aS'mTID_P0'
p2077
aS'mTID_P1'
p2078
asg2077
g0
(g171
g2
Ntp2079
Rp2080
(dp2081
g14
I00
sg32
I01
sg50
F-1.427
sg15
I00
sbsg2078
g0
(g171
g2
Ntp2082
Rp2083
(dp2084
g14
I00
sg32
I01
sg50
F0.433
sg15
I00
sbsg15
I00
sbsg16
I4
sg506
g0
(g63
g2
Ntp2085
Rp2086
(dp2087
g14
I00
sg32
I01
sg50
S'StripCPEfromTrackAngle'
p2088
sg15
I00
sbsg1985
g0
(g63
g2
Ntp2089
Rp2090
(dp2091
g14
I00
sg32
I01
sg50
g2088
sg15
I00
sbsg17
S'/cvmfs/cms.cern.ch/slc7_amd64_gcc700/cms/cmssw/CMSSW_10_6_20/python/RecoLocalTracker/SiStripRecHitConverter/StripCPEfromTrackAngle_cfi.py'
p2092
sg34
S'StripCPEfromTrackAngleESProducer'
p2093
sg35
g1999
sbsI140113821625616
g533
sI140113821547088
g0
(g7
g2
Ntp2094
Rp2095
(dp2096
g11
(lp2097
sg14
I00
sg15
I00
sg16
I56
sg17
g18
sg34
S'sistripconn'
p2098
sg35
S'SiStripConnectivity'
p2099
sbsI140113822268368
g0
(g7
g2
Ntp2100
Rp2101
(dp2102
g11
(lp2103
g380
asg14
I00
sg15
I01
sg16
I56
sg17
g18
sg34
S'HcalGeometryFromDBEP'
p2104
sg380
g0
(g242
g2
Ntp2105
Rp2106
(dp2107
g14
I00
sg32
I01
sg50
I01
sg15
I01
sbsg35
g2104
sbsI140113821839184
g0
(g7
g2
Ntp2108
Rp2109
(dp2110
g11
(lp2111
sg14
I00
sg15
I00
sg16
I56
sg17
g18
sg34
S'EcalLaserCorrectionService'
p2112
sg35
g2112
sbsI140113822268432
g0
(g7
g2
Ntp2113
Rp2114
(dp2115
g11
(lp2116
sg14
I00
sg15
I00
sg16
I56
sg17
g18
sg34
S'HcalAlignmentEP'
p2117
sg35
g2117
sbsI140113822043216
g0
(g7
g2
Ntp2118
Rp2119
(dp2120
g11
(lp2121
S'printDebug'
p2122
ag369
aS'APVGain'
p2123
aS'AutomaticNormalization'
p2124
asg14
I00
sg369
g0
(g63
g2
Ntp2125
Rp2126
(dp2127
g14
I00
sg32
I01
sg50
g112
sg15
I00
sbsg15
I00
sg2124
g0
(g242
g2
Ntp2128
Rp2129
(dp2130
g14
I00
sg32
I01
sg50
I00
sg15
I00
sbsg16
I56
sg2122
g0
(g242
g2
Ntp2131
Rp2132
(dp2133
g14
I00
sg32
I00
sg50
I00
sg15
I00
sbsg17
g18
sg2123
g0
(g397
g20
(lp2134
g0
(g211
g2
Ntp2135
Rp2136
(dp2137
g14
I00
sg32
I01
sg15
I00
sS'Label'
p2138
g0
(g63
g2
Ntp2139
Rp2140
(dp2141
g14
I00
sg32
I00
sg50
g112
sg15
I00
sbsS'Record'
p2142
g0
(g63
g2
Ntp2143
Rp2144
(dp2145
g14
I00
sg32
I01
sg50
S'SiStripApvGainRcd'
p2146
sg15
I00
sbsS'NormalizationFactor'
p2147
g0
(g171
g2
Ntp2148
Rp2149
(dp2150
g14
I00
sg32
I00
sg50
F1.0
sg15
I00
sbsg11
(lp2151
g2142
ag2147
ag2138
asbag0
(g211
g2
Ntp2152
Rp2153
(dp2154
g14
I00
sg32
I01
sg15
I00
sg2138
g0
(g63
g2
Ntp2155
Rp2156
(dp2157
g14
I00
sg32
I00
sg50
g112
sg15
I00
sbsg2142
g0
(g63
g2
Ntp2158
Rp2159
(dp2160
g14
I00
sg32
I01
sg50
S'SiStripApvGain2Rcd'
p2161
sg15
I00
sbsg2147
g0
(g171
g2
Ntp2162
Rp2163
(dp2164
g14
I00
sg32
I00
sg50
F1.0
sg15
I00
sbsg11
(lp2165
g2142
ag2147
ag2138
asbatp2166
Rp2167
(dp2168
g14
I00
sg32
I01
sg15
I00
sg33
I1
sbsg34
S'siStripGainESProducer'
p2169
sg35
S'SiStripGainESProducer'
p2170
sbsI140113821547856
g389
sI140113822297232
g1131
sI140113821581712
g0
(g7
g2
Ntp2171
Rp2172
(dp2173
g11
(lp2174
g369
aS'PrintDebugOutput'
p2175
aS'ThresholdForReducedGranularity'
p2176
aS'UseEmptyRunInfo'
p2177
aS'ReduceGranularity'
p2178
ag393
asg14
I00
sg369
g0
(g63
g2
Ntp2179
Rp2180
(dp2181
g14
I00
sg32
I01
sg50
g112
sg15
I00
sbsg15
I01
sg16
I56
sg17
g18
sg2176
g0
(g171
g2
Ntp2182
Rp2183
(dp2184
g14
I00
sg32
I01
sg50
F0.3
sg15
I00
sbsg34
S'siStripQualityESProducer'
p2185
sg2177
g0
(g242
g2
Ntp2186
Rp2187
(dp2188
g14
I00
sg32
I01
sg50
I00
sg15
I00
sbsg2178
g0
(g242
g2
Ntp2189
Rp2190
(dp2191
g14
I00
sg32
I01
sg50
I00
sg15
I00
sbsg393
g0
(g397
g20
(lp2192
g0
(g211
g2
Ntp2193
Rp2194
(dp2195
g14
I00
sg32
I01
sg15
I00
sg402
g0
(g63
g2
Ntp2196
Rp2197
(dp2198
g14
I00
sg32
I01
sg50
S'SiStripDetVOffRcd'
p2199
sg15
I00
sbsg407
g0
(g63
g2
Ntp2200
Rp2201
(dp2202
g14
I00
sg32
I01
sg50
g112
sg15
I00
sbsg11
(lp2203
g402
ag407
asbag0
(g211
g2
Ntp2204
Rp2205
(dp2206
g14
I00
sg32
I01
sg15
I00
sg402
g0
(g63
g2
Ntp2207
Rp2208
(dp2209
g14
I00
sg32
I01
sg50
S'SiStripDetCablingRcd'
p2210
sg15
I00
sbsg407
g0
(g63
g2
Ntp2211
Rp2212
(dp2213
g14
I00
sg32
I01
sg50
g112
sg15
I00
sbsg11
(lp2214
g402
ag407
asbag0
(g211
g2
Ntp2215
Rp2216
(dp2217
g14
I00
sg32
I01
sg15
I00
sg402
g0
(g63
g2
Ntp2218
Rp2219
(dp2220
g14
I00
sg32
I01
sg50
S'RunInfoRcd'
p2221
sg15
I00
sbsg407
g0
(g63
g2
Ntp2222
Rp2223
(dp2224
g14
I00
sg32
I01
sg50
g112
sg15
I00
sbsg11
(lp2225
g402
ag407
asbag0
(g211
g2
Ntp2226
Rp2227
(dp2228
g14
I00
sg32
I01
sg15
I00
sg402
g0
(g63
g2
Ntp2229
Rp2230
(dp2231
g14
I00
sg32
I01
sg50
S'SiStripBadChannelRcd'
p2232
sg15
I00
sbsg407
g0
(g63
g2
Ntp2233
Rp2234
(dp2235
g14
I00
sg32
I01
sg50
g112
sg15
I00
sbsg11
(lp2236
g402
ag407
asbag0
(g211
g2
Ntp2237
Rp2238
(dp2239
g14
I00
sg32
I01
sg15
I00
sg402
g0
(g63
g2
Ntp2240
Rp2241
(dp2242
g14
I00
sg32
I01
sg50
S'SiStripBadFiberRcd'
p2243
sg15
I00
sbsg407
g0
(g63
g2
Ntp2244
Rp2245
(dp2246
g14
I00
sg32
I01
sg50
g112
sg15
I00
sbsg11
(lp2247
g402
ag407
asbag0
(g211
g2
Ntp2248
Rp2249
(dp2250
g14
I00
sg32
I01
sg15
I00
sg402
g0
(g63
g2
Ntp2251
Rp2252
(dp2253
g14
I00
sg32
I01
sg50
S'SiStripBadModuleRcd'
p2254
sg15
I00
sbsg407
g0
(g63
g2
Ntp2255
Rp2256
(dp2257
g14
I00
sg32
I01
sg50
g112
sg15
I00
sbsg11
(lp2258
g402
ag407
asbag0
(g211
g2
Ntp2259
Rp2260
(dp2261
g14
I00
sg32
I01
sg15
I00
sg402
g0
(g63
g2
Ntp2262
Rp2263
(dp2264
g14
I00
sg32
I01
sg50
S'SiStripBadStripRcd'
p2265
sg15
I00
sbsg407
g0
(g63
g2
Ntp2266
Rp2267
(dp2268
g14
I00
sg32
I01
sg50
g112
sg15
I00
sbsg11
(lp2269
g402
ag407
asbatp2270
Rp2271
(dp2272
g14
I00
sg32
I01
sg15
I00
sg33
I1
sbsg35
S'SiStripQualityESProducer'
p2273
sg2175
g0
(g242
g2
Ntp2274
Rp2275
(dp2276
g14
I00
sg32
I01
sg50
I00
sg15
I00
sbsbsI140113821838992
g503
sI140113822268752
g377
sI140113821838800
g0
(g7
g2
Ntp2277
Rp2278
(dp2279
g11
(lp2280
S'version'
p2281
ag1185
ag62
asg14
I00
sg15
I01
sg16
I56
sg17
g18
sg62
g0
(g63
g2
Ntp2282
Rp2283
(dp2284
g14
I00
sg32
I00
sg50
S'ParabolicMf'
p2285
sg15
I01
sbsg2281
g0
(g63
g2
Ntp2286
Rp2287
(dp2288
g14
I00
sg32
I01
sg50
S'Parabolic'
p2289
sg15
I00
sbsg1185
g0
(g120
g2
Ntp2290
Rp2291
(dp2292
g14
I00
sg32
I01
sg50
I-1
sg15
I00
sbsg34
S'ParabolicParametrizedMagneticFieldProducer'
p2293
sg35
S'AutoParametrizedMagneticFieldProducer'
p2294
sbsI140113821545168
g1072
sI140113822240400
g1165
sI140113821626128
g522
sI140113821838288
g1182
sI140113822269264
g0
(g7
g2
Ntp2295
Rp2296
(dp2297
g11
(lp2298
S'MergePosition'
p2299
aS'Exclude'
p2300
ag369
asg14
I00
sg369
g0
(g63
g2
Ntp2301
Rp2302
(dp2303
g14
I00
sg32
I01
sg50
g112
sg15
I00
sbsg15
I00
sg16
I56
sg2299
g0
(g242
g2
Ntp2304
Rp2305
(dp2306
g14
I00
sg32
I00
sg50
I00
sg15
I00
sbsg17
g18
sg34
S'hcalTopologyIdeal'
p2307
sg2300
g0
(g63
g2
Ntp2308
Rp2309
(dp2310
g14
I00
sg32
I00
sg50
g112
sg15
I00
sbsg35
S'HcalTopologyIdealEP'
p2311
sbsI140113822295952
g0
(g7
g2
Ntp2312
Rp2313
(dp2314
g11
(lp2315
sg14
I00
sg15
I00
sg16
I56
sg17
g18
sg34
S'EcalElectronicsMappingBuilder'
p2316
sg35
g2316
sbsI140113822298000
g0
(g7
g2
Ntp2317
Rp2318
(dp2319
g11
(lp2320
g369
asg14
I00
sg369
g0
(g63
g2
Ntp2321
Rp2322
(dp2323
g14
I00
sg32
I01
sg50
g1141
sg15
I01
sbsg15
I01
sg16
I5
sg17
S'/cvmfs/cms.cern.ch/slc7_amd64_gcc700/cms/cmssw/CMSSW_10_6_20/python/Alignment/CommonAlignmentProducer/fakeForIdealAlignmentProducer_cfi.py'
p2324
sg34
S'fakeForIdealAlignment'
p2325
sg35
S'FakeAlignmentProducer'
p2326
sbsI140113822044112
g0
(g7
g2
Ntp2327
Rp2328
(dp2329
g11
(lp2330
g1075
aS'LorentzAngleDeconvMode'
p2331
aS'LorentzAnglePeakMode'
p2332
asg14
I00
sg15
I00
sg16
I56
sg17
g18
sg1075
g0
(g211
g2
Ntp2333
Rp2334
(dp2335
g14
I00
sg32
I01
sg15
I00
sg62
g0
(g63
g2
Ntp2336
Rp2337
(dp2338
g14
I00
sg32
I00
sg50
g112
sg15
I00
sbsg402
g0
(g63
g2
Ntp2339
Rp2340
(dp2341
g14
I00
sg32
I01
sg50
g1087
sg15
I00
sbsg11
(lp2342
g402
ag62
asbsg34
S'siStripLorentzAngleDepESProducer'
p2343
sg2332
g0
(g211
g2
Ntp2344
Rp2345
(dp2346
g14
I00
sg32
I01
sg15
I00
sg62
g0
(g63
g2
Ntp2347
Rp2348
(dp2349
g14
I00
sg32
I00
sg50
g1095
sg15
I00
sbsg402
g0
(g63
g2
Ntp2350
Rp2351
(dp2352
g14
I00
sg32
I01
sg50
S'SiStripLorentzAngleRcd'
p2353
sg15
I00
sbsg11
(lp2354
g402
ag62
asbsg35
S'SiStripLorentzAngleDepESProducer'
p2355
sg2331
g0
(g211
g2
Ntp2356
Rp2357
(dp2358
g14
I00
sg32
I01
sg15
I00
sg62
g0
(g63
g2
Ntp2359
Rp2360
(dp2361
g14
I00
sg32
I00
sg50
g1107
sg15
I00
sbsg402
g0
(g63
g2
Ntp2362
Rp2363
(dp2364
g14
I00
sg32
I01
sg50
g2353
sg15
I00
sbsg11
(lp2365
g402
ag62
asbsbsI140113822265424
g1917
sI140113821835472
g0
(g7
g2
Ntp2366
Rp2367
(dp2368
g11
(lp2369
g369
ag1874
ag1875
ag1876
ag1022
ag1877
ag1878
ag1879
ag380
asg14
I00
sg369
g0
(g63
g2
Ntp2370
Rp2371
(dp2372
g14
I00
sg32
I01
sg50
g1137
sg15
I01
sbsg15
I01
sg1875
g0
(g242
g2
Ntp2373
Rp2374
(dp2375
g14
I00
sg32
I00
sg50
I00
sg15
I00
sbsg17
S'/cvmfs/cms.cern.ch/slc7_amd64_gcc700/cms/cmssw/CMSSW_10_6_20/python/Geometry/CSCGeometryBuilder/idealForDigiCscGeometryDB_cff.py'
p2376
sg1876
g0
(g242
g2
Ntp2377
Rp2378
(dp2379
g14
I00
sg32
I01
sg50
I01
sg15
I00
sbsg1022
g0
(g63
g2
Ntp2380
Rp2381
(dp2382
g14
I00
sg32
I01
sg50
g1141
sg15
I01
sbsg1877
g0
(g242
g2
Ntp2383
Rp2384
(dp2385
g14
I00
sg32
I01
sg50
I00
sg15
I00
sbsg1874
g0
(g242
g2
Ntp2386
Rp2387
(dp2388
g14
I00
sg32
I01
sg50
I00
sg15
I00
sbsg16
I8
sg1879
g0
(g242
g2
Ntp2389
Rp2390
(dp2391
g14
I00
sg32
I01
sg50
I00
sg15
I00
sbsg34
S'idealForDigiCSCGeometry'
p2392
sg1878
g0
(g242
g2
Ntp2393
Rp2394
(dp2395
g14
I00
sg32
I01
sg50
I01
sg15
I00
sbsg380
g0
(g242
g2
Ntp2396
Rp2397
(dp2398
g14
I00
sg32
I01
sg50
I00
sg15
I01
sbsg35
g1869
sbsI140113822294352
g0
(g7
g2
Ntp2399
Rp2400
(dp2401
g11
(lp2402
sg14
I00
sg15
I00
sg16
I56
sg17
g18
sg34
S'CaloTowerTopologyEP'
p2403
sg35
g2403
sbsI140113822239760
g0
(g7
g2
Ntp2404
Rp2405
(dp2406
g11
(lp2407
g1874
aS'compatibiltyWith11'
p2408
asg14
I00
sg15
I00
sg16
I56
sg17
g18
sg1874
g0
(g242
g2
Ntp2409
Rp2410
(dp2411
g14
I00
sg32
I00
sg50
I00
sg15
I00
sbsg2408
g0
(g242
g2
Ntp2412
Rp2413
(dp2414
g14
I00
sg32
I00
sg50
I01
sg15
I00
sbsg34
S'RPCGeometryESModule'
p2415
sg35
g2415
sbsI140113822040528
g1119
sI140113822265872
g1018
sI140113822266064
g0
(g7
g2
Ntp2416
Rp2417
(dp2418
g11
(lp2419
sg14
I00
sg15
I00
sg16
I56
sg17
g18
sg34
S'GlobalTrackingGeometryESProducer'
p2420
sg35
g2420
sbsI140113821940240
g993
sI140113822266128
g0
(g7
g2
Ntp2421
Rp2422
(dp2423
g11
(lp2424
sg14
I00
sg15
I00
sg16
I56
sg17
g18
sg34
S'TrackerRecoGeometryESProducer'
p2425
sg35
g2425
sbssg2169
g2119
sg2415
g2405
sg2098
g2095
sg1935
g1932
sg2425
g2422
sg2343
g2328
sg2403
g2400
sg2293
g2278
sg1998
g1982
sg1946
g1940
sg2104
g2101
sg1117
g1119
sg2316
g2313
sg2093
g2026
sS'_Process__aliases'
p2426
(dp2427
sg2420
g2417
sg2112
g2109
sg2117
g2114
sg2021
g2018
sg2015
g2009
sg2007
g2001
sg2392
g2367
sS'_Process__subProcesses'
p2428
(lp2429
sg1979
g1967
sg2307
g2296
sS'_Process__schedule'
p2430
Nsg2185
g2172
sg1959
g1949
sS'_Process__modifiers'
p2431
(tsS'_Process__filters'
p2432
(dp2433
g550
g533
ssS'_Process__esproducers'
p2434
(dp2435
g6
g9
sg2185
g2172
sg2112
g2109
sg2425
g2422
sg1180
g1182
sg2093
g2026
sg983
g985
sg1197
g1199
sg2420
g2417
sg56
g58
sg1016
g1018
sg2343
g2328
sg2307
g2296
sg2117
g2114
sg2021
g2018
sg2007
g2001
sg2015
g2009
sg1869
g1871
sg1907
g1909
sg1915
g1917
sg2316
g2313
sg1060
g1062
sg2392
g2367
sg375
g377
sg1070
g1072
sg1979
g1967
sg2169
g2119
sg1202
g1204
sg2415
g2405
sg1959
g1949
sg1935
g1932
sg1163
g1165
sg575
g577
sg2098
g2095
sg387
g389
sg1129
g1131
sg2403
g2400
sg2293
g2278
sg501
g503
sg1998
g1982
sg364
g366
sg570
g572
sg1946
g1940
sg1158
g1160
sg2325
g2318
sg2104
g2101
ssS'_Process__partialschedules'
p2436
(dp2437
sg2325
g2318
sb.