(dp0
S'OriginalConfig'
p1
ccopy_reg
_reconstructor
p2
(cWMCore.Configuration
Configuration
p3
c__builtin__
object
p4
Ntp5
Rp6
(dp7
S'Site'
p8
g2
(cWMCore.Configuration
ConfigSection
p9
g4
Ntp10
Rp11
(dp12
S'_internal_skipChecks'
p13
I00
sS'_internal_documentation'
p14
S''
p15
sS'_internal_settings'
p16
c__builtin__
set
p17
((lp18
S'storageSite'
p19
atp20
Rp21
sS'_internal_name'
p22
g8
sS'_internal_docstrings'
p23
(dp24
sS'_internal_children'
p25
g17
((lp26
tp27
Rp28
sg19
S'T2_CH_CERN'
p29
sS'_internal_parent_ref'
p30
NsbsS'_internal_sections'
p31
(lp32
S'General'
p33
aS'JobType'
p34
aS'Data'
p35
ag8
aS'User'
p36
aS'Debug'
p37
asg36
g2
(g9
g4
Ntp38
Rp39
(dp40
g13
I00
sg14
g15
sg16
g17
((lp41
tp42
Rp43
sg22
g36
sg23
(dp44
sg25
g17
((lp45
tp46
Rp47
sg30
Nsbsg37
g2
(g9
g4
Ntp48
Rp49
(dp50
g13
I00
sg14
g15
sg16
g17
((lp51
tp52
Rp53
sg22
g37
sg23
(dp54
sg25
g17
((lp55
tp56
Rp57
sg30
Nsbsg33
g2
(g9
g4
Ntp58
Rp59
(dp60
S'transferLogs'
p61
I01
sg13
I00
sg14
g15
sg16
g17
((lp62
g61
aS'transferOutputs'
p63
aS'workArea'
p64
aS'requestName'
p65
atp66
Rp67
sg22
g33
sg23
(dp68
sg63
I01
sg25
g17
((lp69
tp70
Rp71
sg65
S'aToTauTau_m3p6To15_pT30To200_ctau0To3_eta0To1p4_pythia8_noPU'
p72
sg30
Nsg64
S'crab_projects'
p73
sbsg35
g2
(g9
g4
Ntp74
Rp75
(dp76
S'outputDatasetTag'
p77
g72
sS'outputPrimaryDataset'
p78
g72
sg13
I00
sS'unitsPerJob'
p79
I1
sg14
g15
sg16
g17
((lp80
g77
aS'publication'
p81
ag79
aS'userInputFiles'
p82
aS'splitting'
p83
aS'outLFNDirBase'
p84
ag78
aS'totalUnits'
p85
atp86
Rp87
sg22
g35
sg83
S'FileBased'
p88
sg23
(dp89
sg25
g17
((lp90
tp91
Rp92
sg81
I00
sg84
S'/store/group/phys_heavyions/rchudasa/e2e'
p93
sg30
Nsg82
(lp94
S'/store/group/phys_heavyions/rchudasa/e2e/Run2018_GENtoAODSIM/aToTauTau_m3p6To15_pT30To200_ctau0To3_eta0To1p4_pythia8_noPU/221011_062903/0000/aToTauTau_m3p6To15_pT30To200_ctau0To3_eta0To1p4_pythia8_noPU_1.root\n'
p95
aS'/store/group/phys_heavyions/rchudasa/e2e/Run2018_GENtoAODSIM/aToTauTau_m3p6To15_pT30To200_ctau0To3_eta0To1p4_pythia8_noPU/221011_062903/0000/aToTauTau_m3p6To15_pT30To200_ctau0To3_eta0To1p4_pythia8_noPU_100.root\n'
p96
aS'/store/group/phys_heavyions/rchudasa/e2e/Run2018_GENtoAODSIM/aToTauTau_m3p6To15_pT30To200_ctau0To3_eta0To1p4_pythia8_noPU/221011_062903/0000/aToTauTau_m3p6To15_pT30To200_ctau0To3_eta0To1p4_pythia8_noPU_101.root\n'
p97
aS'/store/group/phys_heavyions/rchudasa/e2e/Run2018_GENtoAODSIM/aToTauTau_m3p6To15_pT30To200_ctau0To3_eta0To1p4_pythia8_noPU/221011_062903/0000/aToTauTau_m3p6To15_pT30To200_ctau0To3_eta0To1p4_pythia8_noPU_102.root\n'
p98
aS'/store/group/phys_heavyions/rchudasa/e2e/Run2018_GENtoAODSIM/aToTauTau_m3p6To15_pT30To200_ctau0To3_eta0To1p4_pythia8_noPU/221011_062903/0000/aToTauTau_m3p6To15_pT30To200_ctau0To3_eta0To1p4_pythia8_noPU_103.root\n'
p99
aS'/store/group/phys_heavyions/rchudasa/e2e/Run2018_GENtoAODSIM/aToTauTau_m3p6To15_pT30To200_ctau0To3_eta0To1p4_pythia8_noPU/221011_062903/0000/aToTauTau_m3p6To15_pT30To200_ctau0To3_eta0To1p4_pythia8_noPU_104.root\n'
p100
aS'/store/group/phys_heavyions/rchudasa/e2e/Run2018_GENtoAODSIM/aToTauTau_m3p6To15_pT30To200_ctau0To3_eta0To1p4_pythia8_noPU/221011_062903/0000/aToTauTau_m3p6To15_pT30To200_ctau0To3_eta0To1p4_pythia8_noPU_105.root\n'
p101
aS'/store/group/phys_heavyions/rchudasa/e2e/Run2018_GENtoAODSIM/aToTauTau_m3p6To15_pT30To200_ctau0To3_eta0To1p4_pythia8_noPU/221011_062903/0000/aToTauTau_m3p6To15_pT30To200_ctau0To3_eta0To1p4_pythia8_noPU_106.root\n'
p102
aS'/store/group/phys_heavyions/rchudasa/e2e/Run2018_GENtoAODSIM/aToTauTau_m3p6To15_pT30To200_ctau0To3_eta0To1p4_pythia8_noPU/221011_062903/0000/aToTauTau_m3p6To15_pT30To200_ctau0To3_eta0To1p4_pythia8_noPU_107.root\n'
p103
aS'/store/group/phys_heavyions/rchudasa/e2e/Run2018_GENtoAODSIM/aToTauTau_m3p6To15_pT30To200_ctau0To3_eta0To1p4_pythia8_noPU/221011_062903/0000/aToTauTau_m3p6To15_pT30To200_ctau0To3_eta0To1p4_pythia8_noPU_108.root\n'
p104
aS'/store/group/phys_heavyions/rchudasa/e2e/Run2018_GENtoAODSIM/aToTauTau_m3p6To15_pT30To200_ctau0To3_eta0To1p4_pythia8_noPU/221011_062903/0000/aToTauTau_m3p6To15_pT30To200_ctau0To3_eta0To1p4_pythia8_noPU_109.root\n'
p105
aS'/store/group/phys_heavyions/rchudasa/e2e/Run2018_GENtoAODSIM/aToTauTau_m3p6To15_pT30To200_ctau0To3_eta0To1p4_pythia8_noPU/221011_062903/0000/aToTauTau_m3p6To15_pT30To200_ctau0To3_eta0To1p4_pythia8_noPU_11.root\n'
p106
aS'/store/group/phys_heavyions/rchudasa/e2e/Run2018_GENtoAODSIM/aToTauTau_m3p6To15_pT30To200_ctau0To3_eta0To1p4_pythia8_noPU/221011_062903/0000/aToTauTau_m3p6To15_pT30To200_ctau0To3_eta0To1p4_pythia8_noPU_110.root\n'
p107
aS'/store/group/phys_heavyions/rchudasa/e2e/Run2018_GENtoAODSIM/aToTauTau_m3p6To15_pT30To200_ctau0To3_eta0To1p4_pythia8_noPU/221011_062903/0000/aToTauTau_m3p6To15_pT30To200_ctau0To3_eta0To1p4_pythia8_noPU_111.root\n'
p108
aS'/store/group/phys_heavyions/rchudasa/e2e/Run2018_GENtoAODSIM/aToTauTau_m3p6To15_pT30To200_ctau0To3_eta0To1p4_pythia8_noPU/221011_062903/0000/aToTauTau_m3p6To15_pT30To200_ctau0To3_eta0To1p4_pythia8_noPU_112.root\n'
p109
aS'/store/group/phys_heavyions/rchudasa/e2e/Run2018_GENtoAODSIM/aToTauTau_m3p6To15_pT30To200_ctau0To3_eta0To1p4_pythia8_noPU/221011_062903/0000/aToTauTau_m3p6To15_pT30To200_ctau0To3_eta0To1p4_pythia8_noPU_114.root\n'
p110
aS'/store/group/phys_heavyions/rchudasa/e2e/Run2018_GENtoAODSIM/aToTauTau_m3p6To15_pT30To200_ctau0To3_eta0To1p4_pythia8_noPU/221011_062903/0000/aToTauTau_m3p6To15_pT30To200_ctau0To3_eta0To1p4_pythia8_noPU_115.root\n'
p111
aS'/store/group/phys_heavyions/rchudasa/e2e/Run2018_GENtoAODSIM/aToTauTau_m3p6To15_pT30To200_ctau0To3_eta0To1p4_pythia8_noPU/221011_062903/0000/aToTauTau_m3p6To15_pT30To200_ctau0To3_eta0To1p4_pythia8_noPU_118.root\n'
p112
aS'/store/group/phys_heavyions/rchudasa/e2e/Run2018_GENtoAODSIM/aToTauTau_m3p6To15_pT30To200_ctau0To3_eta0To1p4_pythia8_noPU/221011_062903/0000/aToTauTau_m3p6To15_pT30To200_ctau0To3_eta0To1p4_pythia8_noPU_119.root\n'
p113
aS'/store/group/phys_heavyions/rchudasa/e2e/Run2018_GENtoAODSIM/aToTauTau_m3p6To15_pT30To200_ctau0To3_eta0To1p4_pythia8_noPU/221011_062903/0000/aToTauTau_m3p6To15_pT30To200_ctau0To3_eta0To1p4_pythia8_noPU_12.root\n'
p114
aS'/store/group/phys_heavyions/rchudasa/e2e/Run2018_GENtoAODSIM/aToTauTau_m3p6To15_pT30To200_ctau0To3_eta0To1p4_pythia8_noPU/221011_062903/0000/aToTauTau_m3p6To15_pT30To200_ctau0To3_eta0To1p4_pythia8_noPU_120.root\n'
p115
aS'/store/group/phys_heavyions/rchudasa/e2e/Run2018_GENtoAODSIM/aToTauTau_m3p6To15_pT30To200_ctau0To3_eta0To1p4_pythia8_noPU/221011_062903/0000/aToTauTau_m3p6To15_pT30To200_ctau0To3_eta0To1p4_pythia8_noPU_121.root\n'
p116
aS'/store/group/phys_heavyions/rchudasa/e2e/Run2018_GENtoAODSIM/aToTauTau_m3p6To15_pT30To200_ctau0To3_eta0To1p4_pythia8_noPU/221011_062903/0000/aToTauTau_m3p6To15_pT30To200_ctau0To3_eta0To1p4_pythia8_noPU_123.root\n'
p117
aS'/store/group/phys_heavyions/rchudasa/e2e/Run2018_GENtoAODSIM/aToTauTau_m3p6To15_pT30To200_ctau0To3_eta0To1p4_pythia8_noPU/221011_062903/0000/aToTauTau_m3p6To15_pT30To200_ctau0To3_eta0To1p4_pythia8_noPU_124.root\n'
p118
aS'/store/group/phys_heavyions/rchudasa/e2e/Run2018_GENtoAODSIM/aToTauTau_m3p6To15_pT30To200_ctau0To3_eta0To1p4_pythia8_noPU/221011_062903/0000/aToTauTau_m3p6To15_pT30To200_ctau0To3_eta0To1p4_pythia8_noPU_128.root\n'
p119
aS'/store/group/phys_heavyions/rchudasa/e2e/Run2018_GENtoAODSIM/aToTauTau_m3p6To15_pT30To200_ctau0To3_eta0To1p4_pythia8_noPU/221011_062903/0000/aToTauTau_m3p6To15_pT30To200_ctau0To3_eta0To1p4_pythia8_noPU_129.root\n'
p120
aS'/store/group/phys_heavyions/rchudasa/e2e/Run2018_GENtoAODSIM/aToTauTau_m3p6To15_pT30To200_ctau0To3_eta0To1p4_pythia8_noPU/221011_062903/0000/aToTauTau_m3p6To15_pT30To200_ctau0To3_eta0To1p4_pythia8_noPU_13.root\n'
p121
aS'/store/group/phys_heavyions/rchudasa/e2e/Run2018_GENtoAODSIM/aToTauTau_m3p6To15_pT30To200_ctau0To3_eta0To1p4_pythia8_noPU/221011_062903/0000/aToTauTau_m3p6To15_pT30To200_ctau0To3_eta0To1p4_pythia8_noPU_130.root\n'
p122
aS'/store/group/phys_heavyions/rchudasa/e2e/Run2018_GENtoAODSIM/aToTauTau_m3p6To15_pT30To200_ctau0To3_eta0To1p4_pythia8_noPU/221011_062903/0000/aToTauTau_m3p6To15_pT30To200_ctau0To3_eta0To1p4_pythia8_noPU_131.root\n'
p123
aS'/store/group/phys_heavyions/rchudasa/e2e/Run2018_GENtoAODSIM/aToTauTau_m3p6To15_pT30To200_ctau0To3_eta0To1p4_pythia8_noPU/221011_062903/0000/aToTauTau_m3p6To15_pT30To200_ctau0To3_eta0To1p4_pythia8_noPU_132.root\n'
p124
aS'/store/group/phys_heavyions/rchudasa/e2e/Run2018_GENtoAODSIM/aToTauTau_m3p6To15_pT30To200_ctau0To3_eta0To1p4_pythia8_noPU/221011_062903/0000/aToTauTau_m3p6To15_pT30To200_ctau0To3_eta0To1p4_pythia8_noPU_133.root\n'
p125
aS'/store/group/phys_heavyions/rchudasa/e2e/Run2018_GENtoAODSIM/aToTauTau_m3p6To15_pT30To200_ctau0To3_eta0To1p4_pythia8_noPU/221011_062903/0000/aToTauTau_m3p6To15_pT30To200_ctau0To3_eta0To1p4_pythia8_noPU_135.root\n'
p126
aS'/store/group/phys_heavyions/rchudasa/e2e/Run2018_GENtoAODSIM/aToTauTau_m3p6To15_pT30To200_ctau0To3_eta0To1p4_pythia8_noPU/221011_062903/0000/aToTauTau_m3p6To15_pT30To200_ctau0To3_eta0To1p4_pythia8_noPU_136.root\n'
p127
aS'/store/group/phys_heavyions/rchudasa/e2e/Run2018_GENtoAODSIM/aToTauTau_m3p6To15_pT30To200_ctau0To3_eta0To1p4_pythia8_noPU/221011_062903/0000/aToTauTau_m3p6To15_pT30To200_ctau0To3_eta0To1p4_pythia8_noPU_137.root\n'
p128
aS'/store/group/phys_heavyions/rchudasa/e2e/Run2018_GENtoAODSIM/aToTauTau_m3p6To15_pT30To200_ctau0To3_eta0To1p4_pythia8_noPU/221011_062903/0000/aToTauTau_m3p6To15_pT30To200_ctau0To3_eta0To1p4_pythia8_noPU_138.root\n'
p129
aS'/store/group/phys_heavyions/rchudasa/e2e/Run2018_GENtoAODSIM/aToTauTau_m3p6To15_pT30To200_ctau0To3_eta0To1p4_pythia8_noPU/221011_062903/0000/aToTauTau_m3p6To15_pT30To200_ctau0To3_eta0To1p4_pythia8_noPU_139.root\n'
p130
aS'/store/group/phys_heavyions/rchudasa/e2e/Run2018_GENtoAODSIM/aToTauTau_m3p6To15_pT30To200_ctau0To3_eta0To1p4_pythia8_noPU/221011_062903/0000/aToTauTau_m3p6To15_pT30To200_ctau0To3_eta0To1p4_pythia8_noPU_14.root\n'
p131
aS'/store/group/phys_heavyions/rchudasa/e2e/Run2018_GENtoAODSIM/aToTauTau_m3p6To15_pT30To200_ctau0To3_eta0To1p4_pythia8_noPU/221011_062903/0000/aToTauTau_m3p6To15_pT30To200_ctau0To3_eta0To1p4_pythia8_noPU_140.root\n'
p132
aS'/store/group/phys_heavyions/rchudasa/e2e/Run2018_GENtoAODSIM/aToTauTau_m3p6To15_pT30To200_ctau0To3_eta0To1p4_pythia8_noPU/221011_062903/0000/aToTauTau_m3p6To15_pT30To200_ctau0To3_eta0To1p4_pythia8_noPU_141.root\n'
p133
aS'/store/group/phys_heavyions/rchudasa/e2e/Run2018_GENtoAODSIM/aToTauTau_m3p6To15_pT30To200_ctau0To3_eta0To1p4_pythia8_noPU/221011_062903/0000/aToTauTau_m3p6To15_pT30To200_ctau0To3_eta0To1p4_pythia8_noPU_142.root\n'
p134
aS'/store/group/phys_heavyions/rchudasa/e2e/Run2018_GENtoAODSIM/aToTauTau_m3p6To15_pT30To200_ctau0To3_eta0To1p4_pythia8_noPU/221011_062903/0000/aToTauTau_m3p6To15_pT30To200_ctau0To3_eta0To1p4_pythia8_noPU_143.root\n'
p135
aS'/store/group/phys_heavyions/rchudasa/e2e/Run2018_GENtoAODSIM/aToTauTau_m3p6To15_pT30To200_ctau0To3_eta0To1p4_pythia8_noPU/221011_062903/0000/aToTauTau_m3p6To15_pT30To200_ctau0To3_eta0To1p4_pythia8_noPU_145.root\n'
p136
aS'/store/group/phys_heavyions/rchudasa/e2e/Run2018_GENtoAODSIM/aToTauTau_m3p6To15_pT30To200_ctau0To3_eta0To1p4_pythia8_noPU/221011_062903/0000/aToTauTau_m3p6To15_pT30To200_ctau0To3_eta0To1p4_pythia8_noPU_146.root\n'
p137
aS'/store/group/phys_heavyions/rchudasa/e2e/Run2018_GENtoAODSIM/aToTauTau_m3p6To15_pT30To200_ctau0To3_eta0To1p4_pythia8_noPU/221011_062903/0000/aToTauTau_m3p6To15_pT30To200_ctau0To3_eta0To1p4_pythia8_noPU_147.root\n'
p138
aS'/store/group/phys_heavyions/rchudasa/e2e/Run2018_GENtoAODSIM/aToTauTau_m3p6To15_pT30To200_ctau0To3_eta0To1p4_pythia8_noPU/221011_062903/0000/aToTauTau_m3p6To15_pT30To200_ctau0To3_eta0To1p4_pythia8_noPU_148.root\n'
p139
aS'/store/group/phys_heavyions/rchudasa/e2e/Run2018_GENtoAODSIM/aToTauTau_m3p6To15_pT30To200_ctau0To3_eta0To1p4_pythia8_noPU/221011_062903/0000/aToTauTau_m3p6To15_pT30To200_ctau0To3_eta0To1p4_pythia8_noPU_149.root\n'
p140
aS'/store/group/phys_heavyions/rchudasa/e2e/Run2018_GENtoAODSIM/aToTauTau_m3p6To15_pT30To200_ctau0To3_eta0To1p4_pythia8_noPU/221011_062903/0000/aToTauTau_m3p6To15_pT30To200_ctau0To3_eta0To1p4_pythia8_noPU_15.root\n'
p141
aS'/store/group/phys_heavyions/rchudasa/e2e/Run2018_GENtoAODSIM/aToTauTau_m3p6To15_pT30To200_ctau0To3_eta0To1p4_pythia8_noPU/221011_062903/0000/aToTauTau_m3p6To15_pT30To200_ctau0To3_eta0To1p4_pythia8_noPU_150.root\n'
p142
aS'/store/group/phys_heavyions/rchudasa/e2e/Run2018_GENtoAODSIM/aToTauTau_m3p6To15_pT30To200_ctau0To3_eta0To1p4_pythia8_noPU/221011_062903/0000/aToTauTau_m3p6To15_pT30To200_ctau0To3_eta0To1p4_pythia8_noPU_151.root\n'
p143
aS'/store/group/phys_heavyions/rchudasa/e2e/Run2018_GENtoAODSIM/aToTauTau_m3p6To15_pT30To200_ctau0To3_eta0To1p4_pythia8_noPU/221011_062903/0000/aToTauTau_m3p6To15_pT30To200_ctau0To3_eta0To1p4_pythia8_noPU_152.root\n'
p144
aS'/store/group/phys_heavyions/rchudasa/e2e/Run2018_GENtoAODSIM/aToTauTau_m3p6To15_pT30To200_ctau0To3_eta0To1p4_pythia8_noPU/221011_062903/0000/aToTauTau_m3p6To15_pT30To200_ctau0To3_eta0To1p4_pythia8_noPU_153.root\n'
p145
aS'/store/group/phys_heavyions/rchudasa/e2e/Run2018_GENtoAODSIM/aToTauTau_m3p6To15_pT30To200_ctau0To3_eta0To1p4_pythia8_noPU/221011_062903/0000/aToTauTau_m3p6To15_pT30To200_ctau0To3_eta0To1p4_pythia8_noPU_154.root\n'
p146
aS'/store/group/phys_heavyions/rchudasa/e2e/Run2018_GENtoAODSIM/aToTauTau_m3p6To15_pT30To200_ctau0To3_eta0To1p4_pythia8_noPU/221011_062903/0000/aToTauTau_m3p6To15_pT30To200_ctau0To3_eta0To1p4_pythia8_noPU_155.root\n'
p147
aS'/store/group/phys_heavyions/rchudasa/e2e/Run2018_GENtoAODSIM/aToTauTau_m3p6To15_pT30To200_ctau0To3_eta0To1p4_pythia8_noPU/221011_062903/0000/aToTauTau_m3p6To15_pT30To200_ctau0To3_eta0To1p4_pythia8_noPU_156.root\n'
p148
aS'/store/group/phys_heavyions/rchudasa/e2e/Run2018_GENtoAODSIM/aToTauTau_m3p6To15_pT30To200_ctau0To3_eta0To1p4_pythia8_noPU/221011_062903/0000/aToTauTau_m3p6To15_pT30To200_ctau0To3_eta0To1p4_pythia8_noPU_16.root\n'
p149
aS'/store/group/phys_heavyions/rchudasa/e2e/Run2018_GENtoAODSIM/aToTauTau_m3p6To15_pT30To200_ctau0To3_eta0To1p4_pythia8_noPU/221011_062903/0000/aToTauTau_m3p6To15_pT30To200_ctau0To3_eta0To1p4_pythia8_noPU_160.root\n'
p150
aS'/store/group/phys_heavyions/rchudasa/e2e/Run2018_GENtoAODSIM/aToTauTau_m3p6To15_pT30To200_ctau0To3_eta0To1p4_pythia8_noPU/221011_062903/0000/aToTauTau_m3p6To15_pT30To200_ctau0To3_eta0To1p4_pythia8_noPU_161.root\n'
p151
aS'/store/group/phys_heavyions/rchudasa/e2e/Run2018_GENtoAODSIM/aToTauTau_m3p6To15_pT30To200_ctau0To3_eta0To1p4_pythia8_noPU/221011_062903/0000/aToTauTau_m3p6To15_pT30To200_ctau0To3_eta0To1p4_pythia8_noPU_162.root\n'
p152
aS'/store/group/phys_heavyions/rchudasa/e2e/Run2018_GENtoAODSIM/aToTauTau_m3p6To15_pT30To200_ctau0To3_eta0To1p4_pythia8_noPU/221011_062903/0000/aToTauTau_m3p6To15_pT30To200_ctau0To3_eta0To1p4_pythia8_noPU_163.root\n'
p153
aS'/store/group/phys_heavyions/rchudasa/e2e/Run2018_GENtoAODSIM/aToTauTau_m3p6To15_pT30To200_ctau0To3_eta0To1p4_pythia8_noPU/221011_062903/0000/aToTauTau_m3p6To15_pT30To200_ctau0To3_eta0To1p4_pythia8_noPU_165.root\n'
p154
aS'/store/group/phys_heavyions/rchudasa/e2e/Run2018_GENtoAODSIM/aToTauTau_m3p6To15_pT30To200_ctau0To3_eta0To1p4_pythia8_noPU/221011_062903/0000/aToTauTau_m3p6To15_pT30To200_ctau0To3_eta0To1p4_pythia8_noPU_166.root\n'
p155
aS'/store/group/phys_heavyions/rchudasa/e2e/Run2018_GENtoAODSIM/aToTauTau_m3p6To15_pT30To200_ctau0To3_eta0To1p4_pythia8_noPU/221011_062903/0000/aToTauTau_m3p6To15_pT30To200_ctau0To3_eta0To1p4_pythia8_noPU_167.root\n'
p156
aS'/store/group/phys_heavyions/rchudasa/e2e/Run2018_GENtoAODSIM/aToTauTau_m3p6To15_pT30To200_ctau0To3_eta0To1p4_pythia8_noPU/221011_062903/0000/aToTauTau_m3p6To15_pT30To200_ctau0To3_eta0To1p4_pythia8_noPU_168.root\n'
p157
aS'/store/group/phys_heavyions/rchudasa/e2e/Run2018_GENtoAODSIM/aToTauTau_m3p6To15_pT30To200_ctau0To3_eta0To1p4_pythia8_noPU/221011_062903/0000/aToTauTau_m3p6To15_pT30To200_ctau0To3_eta0To1p4_pythia8_noPU_169.root\n'
p158
aS'/store/group/phys_heavyions/rchudasa/e2e/Run2018_GENtoAODSIM/aToTauTau_m3p6To15_pT30To200_ctau0To3_eta0To1p4_pythia8_noPU/221011_062903/0000/aToTauTau_m3p6To15_pT30To200_ctau0To3_eta0To1p4_pythia8_noPU_17.root\n'
p159
aS'/store/group/phys_heavyions/rchudasa/e2e/Run2018_GENtoAODSIM/aToTauTau_m3p6To15_pT30To200_ctau0To3_eta0To1p4_pythia8_noPU/221011_062903/0000/aToTauTau_m3p6To15_pT30To200_ctau0To3_eta0To1p4_pythia8_noPU_170.root\n'
p160
aS'/store/group/phys_heavyions/rchudasa/e2e/Run2018_GENtoAODSIM/aToTauTau_m3p6To15_pT30To200_ctau0To3_eta0To1p4_pythia8_noPU/221011_062903/0000/aToTauTau_m3p6To15_pT30To200_ctau0To3_eta0To1p4_pythia8_noPU_171.root\n'
p161
aS'/store/group/phys_heavyions/rchudasa/e2e/Run2018_GENtoAODSIM/aToTauTau_m3p6To15_pT30To200_ctau0To3_eta0To1p4_pythia8_noPU/221011_062903/0000/aToTauTau_m3p6To15_pT30To200_ctau0To3_eta0To1p4_pythia8_noPU_172.root\n'
p162
aS'/store/group/phys_heavyions/rchudasa/e2e/Run2018_GENtoAODSIM/aToTauTau_m3p6To15_pT30To200_ctau0To3_eta0To1p4_pythia8_noPU/221011_062903/0000/aToTauTau_m3p6To15_pT30To200_ctau0To3_eta0To1p4_pythia8_noPU_173.root\n'
p163
aS'/store/group/phys_heavyions/rchudasa/e2e/Run2018_GENtoAODSIM/aToTauTau_m3p6To15_pT30To200_ctau0To3_eta0To1p4_pythia8_noPU/221011_062903/0000/aToTauTau_m3p6To15_pT30To200_ctau0To3_eta0To1p4_pythia8_noPU_174.root\n'
p164
aS'/store/group/phys_heavyions/rchudasa/e2e/Run2018_GENtoAODSIM/aToTauTau_m3p6To15_pT30To200_ctau0To3_eta0To1p4_pythia8_noPU/221011_062903/0000/aToTauTau_m3p6To15_pT30To200_ctau0To3_eta0To1p4_pythia8_noPU_175.root\n'
p165
aS'/store/group/phys_heavyions/rchudasa/e2e/Run2018_GENtoAODSIM/aToTauTau_m3p6To15_pT30To200_ctau0To3_eta0To1p4_pythia8_noPU/221011_062903/0000/aToTauTau_m3p6To15_pT30To200_ctau0To3_eta0To1p4_pythia8_noPU_176.root\n'
p166
aS'/store/group/phys_heavyions/rchudasa/e2e/Run2018_GENtoAODSIM/aToTauTau_m3p6To15_pT30To200_ctau0To3_eta0To1p4_pythia8_noPU/221011_062903/0000/aToTauTau_m3p6To15_pT30To200_ctau0To3_eta0To1p4_pythia8_noPU_177.root\n'
p167
aS'/store/group/phys_heavyions/rchudasa/e2e/Run2018_GENtoAODSIM/aToTauTau_m3p6To15_pT30To200_ctau0To3_eta0To1p4_pythia8_noPU/221011_062903/0000/aToTauTau_m3p6To15_pT30To200_ctau0To3_eta0To1p4_pythia8_noPU_178.root\n'
p168
aS'/store/group/phys_heavyions/rchudasa/e2e/Run2018_GENtoAODSIM/aToTauTau_m3p6To15_pT30To200_ctau0To3_eta0To1p4_pythia8_noPU/221011_062903/0000/aToTauTau_m3p6To15_pT30To200_ctau0To3_eta0To1p4_pythia8_noPU_179.root\n'
p169
aS'/store/group/phys_heavyions/rchudasa/e2e/Run2018_GENtoAODSIM/aToTauTau_m3p6To15_pT30To200_ctau0To3_eta0To1p4_pythia8_noPU/221011_062903/0000/aToTauTau_m3p6To15_pT30To200_ctau0To3_eta0To1p4_pythia8_noPU_18.root\n'
p170
aS'/store/group/phys_heavyions/rchudasa/e2e/Run2018_GENtoAODSIM/aToTauTau_m3p6To15_pT30To200_ctau0To3_eta0To1p4_pythia8_noPU/221011_062903/0000/aToTauTau_m3p6To15_pT30To200_ctau0To3_eta0To1p4_pythia8_noPU_180.root\n'
p171
aS'/store/group/phys_heavyions/rchudasa/e2e/Run2018_GENtoAODSIM/aToTauTau_m3p6To15_pT30To200_ctau0To3_eta0To1p4_pythia8_noPU/221011_062903/0000/aToTauTau_m3p6To15_pT30To200_ctau0To3_eta0To1p4_pythia8_noPU_181.root\n'
p172
aS'/store/group/phys_heavyions/rchudasa/e2e/Run2018_GENtoAODSIM/aToTauTau_m3p6To15_pT30To200_ctau0To3_eta0To1p4_pythia8_noPU/221011_062903/0000/aToTauTau_m3p6To15_pT30To200_ctau0To3_eta0To1p4_pythia8_noPU_182.root\n'
p173
aS'/store/group/phys_heavyions/rchudasa/e2e/Run2018_GENtoAODSIM/aToTauTau_m3p6To15_pT30To200_ctau0To3_eta0To1p4_pythia8_noPU/221011_062903/0000/aToTauTau_m3p6To15_pT30To200_ctau0To3_eta0To1p4_pythia8_noPU_184.root\n'
p174
aS'/store/group/phys_heavyions/rchudasa/e2e/Run2018_GENtoAODSIM/aToTauTau_m3p6To15_pT30To200_ctau0To3_eta0To1p4_pythia8_noPU/221011_062903/0000/aToTauTau_m3p6To15_pT30To200_ctau0To3_eta0To1p4_pythia8_noPU_185.root\n'
p175
aS'/store/group/phys_heavyions/rchudasa/e2e/Run2018_GENtoAODSIM/aToTauTau_m3p6To15_pT30To200_ctau0To3_eta0To1p4_pythia8_noPU/221011_062903/0000/aToTauTau_m3p6To15_pT30To200_ctau0To3_eta0To1p4_pythia8_noPU_186.root\n'
p176
aS'/store/group/phys_heavyions/rchudasa/e2e/Run2018_GENtoAODSIM/aToTauTau_m3p6To15_pT30To200_ctau0To3_eta0To1p4_pythia8_noPU/221011_062903/0000/aToTauTau_m3p6To15_pT30To200_ctau0To3_eta0To1p4_pythia8_noPU_187.root\n'
p177
aS'/store/group/phys_heavyions/rchudasa/e2e/Run2018_GENtoAODSIM/aToTauTau_m3p6To15_pT30To200_ctau0To3_eta0To1p4_pythia8_noPU/221011_062903/0000/aToTauTau_m3p6To15_pT30To200_ctau0To3_eta0To1p4_pythia8_noPU_19.root\n'
p178
aS'/store/group/phys_heavyions/rchudasa/e2e/Run2018_GENtoAODSIM/aToTauTau_m3p6To15_pT30To200_ctau0To3_eta0To1p4_pythia8_noPU/221011_062903/0000/aToTauTau_m3p6To15_pT30To200_ctau0To3_eta0To1p4_pythia8_noPU_190.root\n'
p179
aS'/store/group/phys_heavyions/rchudasa/e2e/Run2018_GENtoAODSIM/aToTauTau_m3p6To15_pT30To200_ctau0To3_eta0To1p4_pythia8_noPU/221011_062903/0000/aToTauTau_m3p6To15_pT30To200_ctau0To3_eta0To1p4_pythia8_noPU_191.root\n'
p180
aS'/store/group/phys_heavyions/rchudasa/e2e/Run2018_GENtoAODSIM/aToTauTau_m3p6To15_pT30To200_ctau0To3_eta0To1p4_pythia8_noPU/221011_062903/0000/aToTauTau_m3p6To15_pT30To200_ctau0To3_eta0To1p4_pythia8_noPU_192.root\n'
p181
aS'/store/group/phys_heavyions/rchudasa/e2e/Run2018_GENtoAODSIM/aToTauTau_m3p6To15_pT30To200_ctau0To3_eta0To1p4_pythia8_noPU/221011_062903/0000/aToTauTau_m3p6To15_pT30To200_ctau0To3_eta0To1p4_pythia8_noPU_193.root\n'
p182
aS'/store/group/phys_heavyions/rchudasa/e2e/Run2018_GENtoAODSIM/aToTauTau_m3p6To15_pT30To200_ctau0To3_eta0To1p4_pythia8_noPU/221011_062903/0000/aToTauTau_m3p6To15_pT30To200_ctau0To3_eta0To1p4_pythia8_noPU_194.root\n'
p183
aS'/store/group/phys_heavyions/rchudasa/e2e/Run2018_GENtoAODSIM/aToTauTau_m3p6To15_pT30To200_ctau0To3_eta0To1p4_pythia8_noPU/221011_062903/0000/aToTauTau_m3p6To15_pT30To200_ctau0To3_eta0To1p4_pythia8_noPU_195.root\n'
p184
aS'/store/group/phys_heavyions/rchudasa/e2e/Run2018_GENtoAODSIM/aToTauTau_m3p6To15_pT30To200_ctau0To3_eta0To1p4_pythia8_noPU/221011_062903/0000/aToTauTau_m3p6To15_pT30To200_ctau0To3_eta0To1p4_pythia8_noPU_196.root\n'
p185
aS'/store/group/phys_heavyions/rchudasa/e2e/Run2018_GENtoAODSIM/aToTauTau_m3p6To15_pT30To200_ctau0To3_eta0To1p4_pythia8_noPU/221011_062903/0000/aToTauTau_m3p6To15_pT30To200_ctau0To3_eta0To1p4_pythia8_noPU_197.root\n'
p186
aS'/store/group/phys_heavyions/rchudasa/e2e/Run2018_GENtoAODSIM/aToTauTau_m3p6To15_pT30To200_ctau0To3_eta0To1p4_pythia8_noPU/221011_062903/0000/aToTauTau_m3p6To15_pT30To200_ctau0To3_eta0To1p4_pythia8_noPU_198.root\n'
p187
aS'/store/group/phys_heavyions/rchudasa/e2e/Run2018_GENtoAODSIM/aToTauTau_m3p6To15_pT30To200_ctau0To3_eta0To1p4_pythia8_noPU/221011_062903/0000/aToTauTau_m3p6To15_pT30To200_ctau0To3_eta0To1p4_pythia8_noPU_199.root\n'
p188
aS'/store/group/phys_heavyions/rchudasa/e2e/Run2018_GENtoAODSIM/aToTauTau_m3p6To15_pT30To200_ctau0To3_eta0To1p4_pythia8_noPU/221011_062903/0000/aToTauTau_m3p6To15_pT30To200_ctau0To3_eta0To1p4_pythia8_noPU_2.root\n'
p189
aS'/store/group/phys_heavyions/rchudasa/e2e/Run2018_GENtoAODSIM/aToTauTau_m3p6To15_pT30To200_ctau0To3_eta0To1p4_pythia8_noPU/221011_062903/0000/aToTauTau_m3p6To15_pT30To200_ctau0To3_eta0To1p4_pythia8_noPU_20.root\n'
p190
aS'/store/group/phys_heavyions/rchudasa/e2e/Run2018_GENtoAODSIM/aToTauTau_m3p6To15_pT30To200_ctau0To3_eta0To1p4_pythia8_noPU/221011_062903/0000/aToTauTau_m3p6To15_pT30To200_ctau0To3_eta0To1p4_pythia8_noPU_200.root\n'
p191
aS'/store/group/phys_heavyions/rchudasa/e2e/Run2018_GENtoAODSIM/aToTauTau_m3p6To15_pT30To200_ctau0To3_eta0To1p4_pythia8_noPU/221011_062903/0000/aToTauTau_m3p6To15_pT30To200_ctau0To3_eta0To1p4_pythia8_noPU_202.root\n'
p192
aS'/store/group/phys_heavyions/rchudasa/e2e/Run2018_GENtoAODSIM/aToTauTau_m3p6To15_pT30To200_ctau0To3_eta0To1p4_pythia8_noPU/221011_062903/0000/aToTauTau_m3p6To15_pT30To200_ctau0To3_eta0To1p4_pythia8_noPU_203.root\n'
p193
aS'/store/group/phys_heavyions/rchudasa/e2e/Run2018_GENtoAODSIM/aToTauTau_m3p6To15_pT30To200_ctau0To3_eta0To1p4_pythia8_noPU/221011_062903/0000/aToTauTau_m3p6To15_pT30To200_ctau0To3_eta0To1p4_pythia8_noPU_204.root\n'
p194
aS'/store/group/phys_heavyions/rchudasa/e2e/Run2018_GENtoAODSIM/aToTauTau_m3p6To15_pT30To200_ctau0To3_eta0To1p4_pythia8_noPU/221011_062903/0000/aToTauTau_m3p6To15_pT30To200_ctau0To3_eta0To1p4_pythia8_noPU_205.root\n'
p195
aS'/store/group/phys_heavyions/rchudasa/e2e/Run2018_GENtoAODSIM/aToTauTau_m3p6To15_pT30To200_ctau0To3_eta0To1p4_pythia8_noPU/221011_062903/0000/aToTauTau_m3p6To15_pT30To200_ctau0To3_eta0To1p4_pythia8_noPU_206.root\n'
p196
aS'/store/group/phys_heavyions/rchudasa/e2e/Run2018_GENtoAODSIM/aToTauTau_m3p6To15_pT30To200_ctau0To3_eta0To1p4_pythia8_noPU/221011_062903/0000/aToTauTau_m3p6To15_pT30To200_ctau0To3_eta0To1p4_pythia8_noPU_207.root\n'
p197
aS'/store/group/phys_heavyions/rchudasa/e2e/Run2018_GENtoAODSIM/aToTauTau_m3p6To15_pT30To200_ctau0To3_eta0To1p4_pythia8_noPU/221011_062903/0000/aToTauTau_m3p6To15_pT30To200_ctau0To3_eta0To1p4_pythia8_noPU_208.root\n'
p198
aS'/store/group/phys_heavyions/rchudasa/e2e/Run2018_GENtoAODSIM/aToTauTau_m3p6To15_pT30To200_ctau0To3_eta0To1p4_pythia8_noPU/221011_062903/0000/aToTauTau_m3p6To15_pT30To200_ctau0To3_eta0To1p4_pythia8_noPU_209.root\n'
p199
aS'/store/group/phys_heavyions/rchudasa/e2e/Run2018_GENtoAODSIM/aToTauTau_m3p6To15_pT30To200_ctau0To3_eta0To1p4_pythia8_noPU/221011_062903/0000/aToTauTau_m3p6To15_pT30To200_ctau0To3_eta0To1p4_pythia8_noPU_21.root\n'
p200
aS'/store/group/phys_heavyions/rchudasa/e2e/Run2018_GENtoAODSIM/aToTauTau_m3p6To15_pT30To200_ctau0To3_eta0To1p4_pythia8_noPU/221011_062903/0000/aToTauTau_m3p6To15_pT30To200_ctau0To3_eta0To1p4_pythia8_noPU_210.root\n'
p201
aS'/store/group/phys_heavyions/rchudasa/e2e/Run2018_GENtoAODSIM/aToTauTau_m3p6To15_pT30To200_ctau0To3_eta0To1p4_pythia8_noPU/221011_062903/0000/aToTauTau_m3p6To15_pT30To200_ctau0To3_eta0To1p4_pythia8_noPU_211.root\n'
p202
aS'/store/group/phys_heavyions/rchudasa/e2e/Run2018_GENtoAODSIM/aToTauTau_m3p6To15_pT30To200_ctau0To3_eta0To1p4_pythia8_noPU/221011_062903/0000/aToTauTau_m3p6To15_pT30To200_ctau0To3_eta0To1p4_pythia8_noPU_212.root\n'
p203
aS'/store/group/phys_heavyions/rchudasa/e2e/Run2018_GENtoAODSIM/aToTauTau_m3p6To15_pT30To200_ctau0To3_eta0To1p4_pythia8_noPU/221011_062903/0000/aToTauTau_m3p6To15_pT30To200_ctau0To3_eta0To1p4_pythia8_noPU_214.root\n'
p204
aS'/store/group/phys_heavyions/rchudasa/e2e/Run2018_GENtoAODSIM/aToTauTau_m3p6To15_pT30To200_ctau0To3_eta0To1p4_pythia8_noPU/221011_062903/0000/aToTauTau_m3p6To15_pT30To200_ctau0To3_eta0To1p4_pythia8_noPU_215.root\n'
p205
aS'/store/group/phys_heavyions/rchudasa/e2e/Run2018_GENtoAODSIM/aToTauTau_m3p6To15_pT30To200_ctau0To3_eta0To1p4_pythia8_noPU/221011_062903/0000/aToTauTau_m3p6To15_pT30To200_ctau0To3_eta0To1p4_pythia8_noPU_216.root\n'
p206
aS'/store/group/phys_heavyions/rchudasa/e2e/Run2018_GENtoAODSIM/aToTauTau_m3p6To15_pT30To200_ctau0To3_eta0To1p4_pythia8_noPU/221011_062903/0000/aToTauTau_m3p6To15_pT30To200_ctau0To3_eta0To1p4_pythia8_noPU_217.root\n'
p207
aS'/store/group/phys_heavyions/rchudasa/e2e/Run2018_GENtoAODSIM/aToTauTau_m3p6To15_pT30To200_ctau0To3_eta0To1p4_pythia8_noPU/221011_062903/0000/aToTauTau_m3p6To15_pT30To200_ctau0To3_eta0To1p4_pythia8_noPU_218.root\n'
p208
aS'/store/group/phys_heavyions/rchudasa/e2e/Run2018_GENtoAODSIM/aToTauTau_m3p6To15_pT30To200_ctau0To3_eta0To1p4_pythia8_noPU/221011_062903/0000/aToTauTau_m3p6To15_pT30To200_ctau0To3_eta0To1p4_pythia8_noPU_219.root\n'
p209
aS'/store/group/phys_heavyions/rchudasa/e2e/Run2018_GENtoAODSIM/aToTauTau_m3p6To15_pT30To200_ctau0To3_eta0To1p4_pythia8_noPU/221011_062903/0000/aToTauTau_m3p6To15_pT30To200_ctau0To3_eta0To1p4_pythia8_noPU_22.root\n'
p210
aS'/store/group/phys_heavyions/rchudasa/e2e/Run2018_GENtoAODSIM/aToTauTau_m3p6To15_pT30To200_ctau0To3_eta0To1p4_pythia8_noPU/221011_062903/0000/aToTauTau_m3p6To15_pT30To200_ctau0To3_eta0To1p4_pythia8_noPU_220.root\n'
p211
aS'/store/group/phys_heavyions/rchudasa/e2e/Run2018_GENtoAODSIM/aToTauTau_m3p6To15_pT30To200_ctau0To3_eta0To1p4_pythia8_noPU/221011_062903/0000/aToTauTau_m3p6To15_pT30To200_ctau0To3_eta0To1p4_pythia8_noPU_221.root\n'
p212
aS'/store/group/phys_heavyions/rchudasa/e2e/Run2018_GENtoAODSIM/aToTauTau_m3p6To15_pT30To200_ctau0To3_eta0To1p4_pythia8_noPU/221011_062903/0000/aToTauTau_m3p6To15_pT30To200_ctau0To3_eta0To1p4_pythia8_noPU_222.root\n'
p213
aS'/store/group/phys_heavyions/rchudasa/e2e/Run2018_GENtoAODSIM/aToTauTau_m3p6To15_pT30To200_ctau0To3_eta0To1p4_pythia8_noPU/221011_062903/0000/aToTauTau_m3p6To15_pT30To200_ctau0To3_eta0To1p4_pythia8_noPU_223.root\n'
p214
aS'/store/group/phys_heavyions/rchudasa/e2e/Run2018_GENtoAODSIM/aToTauTau_m3p6To15_pT30To200_ctau0To3_eta0To1p4_pythia8_noPU/221011_062903/0000/aToTauTau_m3p6To15_pT30To200_ctau0To3_eta0To1p4_pythia8_noPU_224.root\n'
p215
aS'/store/group/phys_heavyions/rchudasa/e2e/Run2018_GENtoAODSIM/aToTauTau_m3p6To15_pT30To200_ctau0To3_eta0To1p4_pythia8_noPU/221011_062903/0000/aToTauTau_m3p6To15_pT30To200_ctau0To3_eta0To1p4_pythia8_noPU_225.root\n'
p216
aS'/store/group/phys_heavyions/rchudasa/e2e/Run2018_GENtoAODSIM/aToTauTau_m3p6To15_pT30To200_ctau0To3_eta0To1p4_pythia8_noPU/221011_062903/0000/aToTauTau_m3p6To15_pT30To200_ctau0To3_eta0To1p4_pythia8_noPU_226.root\n'
p217
aS'/store/group/phys_heavyions/rchudasa/e2e/Run2018_GENtoAODSIM/aToTauTau_m3p6To15_pT30To200_ctau0To3_eta0To1p4_pythia8_noPU/221011_062903/0000/aToTauTau_m3p6To15_pT30To200_ctau0To3_eta0To1p4_pythia8_noPU_227.root\n'
p218
aS'/store/group/phys_heavyions/rchudasa/e2e/Run2018_GENtoAODSIM/aToTauTau_m3p6To15_pT30To200_ctau0To3_eta0To1p4_pythia8_noPU/221011_062903/0000/aToTauTau_m3p6To15_pT30To200_ctau0To3_eta0To1p4_pythia8_noPU_228.root\n'
p219
aS'/store/group/phys_heavyions/rchudasa/e2e/Run2018_GENtoAODSIM/aToTauTau_m3p6To15_pT30To200_ctau0To3_eta0To1p4_pythia8_noPU/221011_062903/0000/aToTauTau_m3p6To15_pT30To200_ctau0To3_eta0To1p4_pythia8_noPU_229.root\n'
p220
aS'/store/group/phys_heavyions/rchudasa/e2e/Run2018_GENtoAODSIM/aToTauTau_m3p6To15_pT30To200_ctau0To3_eta0To1p4_pythia8_noPU/221011_062903/0000/aToTauTau_m3p6To15_pT30To200_ctau0To3_eta0To1p4_pythia8_noPU_23.root\n'
p221
aS'/store/group/phys_heavyions/rchudasa/e2e/Run2018_GENtoAODSIM/aToTauTau_m3p6To15_pT30To200_ctau0To3_eta0To1p4_pythia8_noPU/221011_062903/0000/aToTauTau_m3p6To15_pT30To200_ctau0To3_eta0To1p4_pythia8_noPU_230.root\n'
p222
aS'/store/group/phys_heavyions/rchudasa/e2e/Run2018_GENtoAODSIM/aToTauTau_m3p6To15_pT30To200_ctau0To3_eta0To1p4_pythia8_noPU/221011_062903/0000/aToTauTau_m3p6To15_pT30To200_ctau0To3_eta0To1p4_pythia8_noPU_231.root\n'
p223
aS'/store/group/phys_heavyions/rchudasa/e2e/Run2018_GENtoAODSIM/aToTauTau_m3p6To15_pT30To200_ctau0To3_eta0To1p4_pythia8_noPU/221011_062903/0000/aToTauTau_m3p6To15_pT30To200_ctau0To3_eta0To1p4_pythia8_noPU_232.root\n'
p224
aS'/store/group/phys_heavyions/rchudasa/e2e/Run2018_GENtoAODSIM/aToTauTau_m3p6To15_pT30To200_ctau0To3_eta0To1p4_pythia8_noPU/221011_062903/0000/aToTauTau_m3p6To15_pT30To200_ctau0To3_eta0To1p4_pythia8_noPU_233.root\n'
p225
aS'/store/group/phys_heavyions/rchudasa/e2e/Run2018_GENtoAODSIM/aToTauTau_m3p6To15_pT30To200_ctau0To3_eta0To1p4_pythia8_noPU/221011_062903/0000/aToTauTau_m3p6To15_pT30To200_ctau0To3_eta0To1p4_pythia8_noPU_234.root\n'
p226
aS'/store/group/phys_heavyions/rchudasa/e2e/Run2018_GENtoAODSIM/aToTauTau_m3p6To15_pT30To200_ctau0To3_eta0To1p4_pythia8_noPU/221011_062903/0000/aToTauTau_m3p6To15_pT30To200_ctau0To3_eta0To1p4_pythia8_noPU_235.root\n'
p227
aS'/store/group/phys_heavyions/rchudasa/e2e/Run2018_GENtoAODSIM/aToTauTau_m3p6To15_pT30To200_ctau0To3_eta0To1p4_pythia8_noPU/221011_062903/0000/aToTauTau_m3p6To15_pT30To200_ctau0To3_eta0To1p4_pythia8_noPU_236.root\n'
p228
aS'/store/group/phys_heavyions/rchudasa/e2e/Run2018_GENtoAODSIM/aToTauTau_m3p6To15_pT30To200_ctau0To3_eta0To1p4_pythia8_noPU/221011_062903/0000/aToTauTau_m3p6To15_pT30To200_ctau0To3_eta0To1p4_pythia8_noPU_237.root\n'
p229
aS'/store/group/phys_heavyions/rchudasa/e2e/Run2018_GENtoAODSIM/aToTauTau_m3p6To15_pT30To200_ctau0To3_eta0To1p4_pythia8_noPU/221011_062903/0000/aToTauTau_m3p6To15_pT30To200_ctau0To3_eta0To1p4_pythia8_noPU_238.root\n'
p230
aS'/store/group/phys_heavyions/rchudasa/e2e/Run2018_GENtoAODSIM/aToTauTau_m3p6To15_pT30To200_ctau0To3_eta0To1p4_pythia8_noPU/221011_062903/0000/aToTauTau_m3p6To15_pT30To200_ctau0To3_eta0To1p4_pythia8_noPU_239.root\n'
p231
aS'/store/group/phys_heavyions/rchudasa/e2e/Run2018_GENtoAODSIM/aToTauTau_m3p6To15_pT30To200_ctau0To3_eta0To1p4_pythia8_noPU/221011_062903/0000/aToTauTau_m3p6To15_pT30To200_ctau0To3_eta0To1p4_pythia8_noPU_24.root\n'
p232
aS'/store/group/phys_heavyions/rchudasa/e2e/Run2018_GENtoAODSIM/aToTauTau_m3p6To15_pT30To200_ctau0To3_eta0To1p4_pythia8_noPU/221011_062903/0000/aToTauTau_m3p6To15_pT30To200_ctau0To3_eta0To1p4_pythia8_noPU_240.root\n'
p233
aS'/store/group/phys_heavyions/rchudasa/e2e/Run2018_GENtoAODSIM/aToTauTau_m3p6To15_pT30To200_ctau0To3_eta0To1p4_pythia8_noPU/221011_062903/0000/aToTauTau_m3p6To15_pT30To200_ctau0To3_eta0To1p4_pythia8_noPU_241.root\n'
p234
aS'/store/group/phys_heavyions/rchudasa/e2e/Run2018_GENtoAODSIM/aToTauTau_m3p6To15_pT30To200_ctau0To3_eta0To1p4_pythia8_noPU/221011_062903/0000/aToTauTau_m3p6To15_pT30To200_ctau0To3_eta0To1p4_pythia8_noPU_242.root\n'
p235
aS'/store/group/phys_heavyions/rchudasa/e2e/Run2018_GENtoAODSIM/aToTauTau_m3p6To15_pT30To200_ctau0To3_eta0To1p4_pythia8_noPU/221011_062903/0000/aToTauTau_m3p6To15_pT30To200_ctau0To3_eta0To1p4_pythia8_noPU_243.root\n'
p236
aS'/store/group/phys_heavyions/rchudasa/e2e/Run2018_GENtoAODSIM/aToTauTau_m3p6To15_pT30To200_ctau0To3_eta0To1p4_pythia8_noPU/221011_062903/0000/aToTauTau_m3p6To15_pT30To200_ctau0To3_eta0To1p4_pythia8_noPU_244.root\n'
p237
aS'/store/group/phys_heavyions/rchudasa/e2e/Run2018_GENtoAODSIM/aToTauTau_m3p6To15_pT30To200_ctau0To3_eta0To1p4_pythia8_noPU/221011_062903/0000/aToTauTau_m3p6To15_pT30To200_ctau0To3_eta0To1p4_pythia8_noPU_245.root\n'
p238
aS'/store/group/phys_heavyions/rchudasa/e2e/Run2018_GENtoAODSIM/aToTauTau_m3p6To15_pT30To200_ctau0To3_eta0To1p4_pythia8_noPU/221011_062903/0000/aToTauTau_m3p6To15_pT30To200_ctau0To3_eta0To1p4_pythia8_noPU_246.root\n'
p239
aS'/store/group/phys_heavyions/rchudasa/e2e/Run2018_GENtoAODSIM/aToTauTau_m3p6To15_pT30To200_ctau0To3_eta0To1p4_pythia8_noPU/221011_062903/0000/aToTauTau_m3p6To15_pT30To200_ctau0To3_eta0To1p4_pythia8_noPU_247.root\n'
p240
aS'/store/group/phys_heavyions/rchudasa/e2e/Run2018_GENtoAODSIM/aToTauTau_m3p6To15_pT30To200_ctau0To3_eta0To1p4_pythia8_noPU/221011_062903/0000/aToTauTau_m3p6To15_pT30To200_ctau0To3_eta0To1p4_pythia8_noPU_248.root\n'
p241
aS'/store/group/phys_heavyions/rchudasa/e2e/Run2018_GENtoAODSIM/aToTauTau_m3p6To15_pT30To200_ctau0To3_eta0To1p4_pythia8_noPU/221011_062903/0000/aToTauTau_m3p6To15_pT30To200_ctau0To3_eta0To1p4_pythia8_noPU_249.root\n'
p242
aS'/store/group/phys_heavyions/rchudasa/e2e/Run2018_GENtoAODSIM/aToTauTau_m3p6To15_pT30To200_ctau0To3_eta0To1p4_pythia8_noPU/221011_062903/0000/aToTauTau_m3p6To15_pT30To200_ctau0To3_eta0To1p4_pythia8_noPU_25.root\n'
p243
aS'/store/group/phys_heavyions/rchudasa/e2e/Run2018_GENtoAODSIM/aToTauTau_m3p6To15_pT30To200_ctau0To3_eta0To1p4_pythia8_noPU/221011_062903/0000/aToTauTau_m3p6To15_pT30To200_ctau0To3_eta0To1p4_pythia8_noPU_250.root\n'
p244
aS'/store/group/phys_heavyions/rchudasa/e2e/Run2018_GENtoAODSIM/aToTauTau_m3p6To15_pT30To200_ctau0To3_eta0To1p4_pythia8_noPU/221011_062903/0000/aToTauTau_m3p6To15_pT30To200_ctau0To3_eta0To1p4_pythia8_noPU_26.root\n'
p245
aS'/store/group/phys_heavyions/rchudasa/e2e/Run2018_GENtoAODSIM/aToTauTau_m3p6To15_pT30To200_ctau0To3_eta0To1p4_pythia8_noPU/221011_062903/0000/aToTauTau_m3p6To15_pT30To200_ctau0To3_eta0To1p4_pythia8_noPU_27.root\n'
p246
aS'/store/group/phys_heavyions/rchudasa/e2e/Run2018_GENtoAODSIM/aToTauTau_m3p6To15_pT30To200_ctau0To3_eta0To1p4_pythia8_noPU/221011_062903/0000/aToTauTau_m3p6To15_pT30To200_ctau0To3_eta0To1p4_pythia8_noPU_29.root\n'
p247
aS'/store/group/phys_heavyions/rchudasa/e2e/Run2018_GENtoAODSIM/aToTauTau_m3p6To15_pT30To200_ctau0To3_eta0To1p4_pythia8_noPU/221011_062903/0000/aToTauTau_m3p6To15_pT30To200_ctau0To3_eta0To1p4_pythia8_noPU_3.root\n'
p248
aS'/store/group/phys_heavyions/rchudasa/e2e/Run2018_GENtoAODSIM/aToTauTau_m3p6To15_pT30To200_ctau0To3_eta0To1p4_pythia8_noPU/221011_062903/0000/aToTauTau_m3p6To15_pT30To200_ctau0To3_eta0To1p4_pythia8_noPU_30.root\n'
p249
aS'/store/group/phys_heavyions/rchudasa/e2e/Run2018_GENtoAODSIM/aToTauTau_m3p6To15_pT30To200_ctau0To3_eta0To1p4_pythia8_noPU/221011_062903/0000/aToTauTau_m3p6To15_pT30To200_ctau0To3_eta0To1p4_pythia8_noPU_31.root\n'
p250
aS'/store/group/phys_heavyions/rchudasa/e2e/Run2018_GENtoAODSIM/aToTauTau_m3p6To15_pT30To200_ctau0To3_eta0To1p4_pythia8_noPU/221011_062903/0000/aToTauTau_m3p6To15_pT30To200_ctau0To3_eta0To1p4_pythia8_noPU_32.root\n'
p251
aS'/store/group/phys_heavyions/rchudasa/e2e/Run2018_GENtoAODSIM/aToTauTau_m3p6To15_pT30To200_ctau0To3_eta0To1p4_pythia8_noPU/221011_062903/0000/aToTauTau_m3p6To15_pT30To200_ctau0To3_eta0To1p4_pythia8_noPU_33.root\n'
p252
aS'/store/group/phys_heavyions/rchudasa/e2e/Run2018_GENtoAODSIM/aToTauTau_m3p6To15_pT30To200_ctau0To3_eta0To1p4_pythia8_noPU/221011_062903/0000/aToTauTau_m3p6To15_pT30To200_ctau0To3_eta0To1p4_pythia8_noPU_34.root\n'
p253
aS'/store/group/phys_heavyions/rchudasa/e2e/Run2018_GENtoAODSIM/aToTauTau_m3p6To15_pT30To200_ctau0To3_eta0To1p4_pythia8_noPU/221011_062903/0000/aToTauTau_m3p6To15_pT30To200_ctau0To3_eta0To1p4_pythia8_noPU_35.root\n'
p254
aS'/store/group/phys_heavyions/rchudasa/e2e/Run2018_GENtoAODSIM/aToTauTau_m3p6To15_pT30To200_ctau0To3_eta0To1p4_pythia8_noPU/221011_062903/0000/aToTauTau_m3p6To15_pT30To200_ctau0To3_eta0To1p4_pythia8_noPU_36.root\n'
p255
aS'/store/group/phys_heavyions/rchudasa/e2e/Run2018_GENtoAODSIM/aToTauTau_m3p6To15_pT30To200_ctau0To3_eta0To1p4_pythia8_noPU/221011_062903/0000/aToTauTau_m3p6To15_pT30To200_ctau0To3_eta0To1p4_pythia8_noPU_37.root\n'
p256
aS'/store/group/phys_heavyions/rchudasa/e2e/Run2018_GENtoAODSIM/aToTauTau_m3p6To15_pT30To200_ctau0To3_eta0To1p4_pythia8_noPU/221011_062903/0000/aToTauTau_m3p6To15_pT30To200_ctau0To3_eta0To1p4_pythia8_noPU_38.root\n'
p257
aS'/store/group/phys_heavyions/rchudasa/e2e/Run2018_GENtoAODSIM/aToTauTau_m3p6To15_pT30To200_ctau0To3_eta0To1p4_pythia8_noPU/221011_062903/0000/aToTauTau_m3p6To15_pT30To200_ctau0To3_eta0To1p4_pythia8_noPU_4.root\n'
p258
aS'/store/group/phys_heavyions/rchudasa/e2e/Run2018_GENtoAODSIM/aToTauTau_m3p6To15_pT30To200_ctau0To3_eta0To1p4_pythia8_noPU/221011_062903/0000/aToTauTau_m3p6To15_pT30To200_ctau0To3_eta0To1p4_pythia8_noPU_40.root\n'
p259
aS'/store/group/phys_heavyions/rchudasa/e2e/Run2018_GENtoAODSIM/aToTauTau_m3p6To15_pT30To200_ctau0To3_eta0To1p4_pythia8_noPU/221011_062903/0000/aToTauTau_m3p6To15_pT30To200_ctau0To3_eta0To1p4_pythia8_noPU_41.root\n'
p260
aS'/store/group/phys_heavyions/rchudasa/e2e/Run2018_GENtoAODSIM/aToTauTau_m3p6To15_pT30To200_ctau0To3_eta0To1p4_pythia8_noPU/221011_062903/0000/aToTauTau_m3p6To15_pT30To200_ctau0To3_eta0To1p4_pythia8_noPU_42.root\n'
p261
aS'/store/group/phys_heavyions/rchudasa/e2e/Run2018_GENtoAODSIM/aToTauTau_m3p6To15_pT30To200_ctau0To3_eta0To1p4_pythia8_noPU/221011_062903/0000/aToTauTau_m3p6To15_pT30To200_ctau0To3_eta0To1p4_pythia8_noPU_43.root\n'
p262
aS'/store/group/phys_heavyions/rchudasa/e2e/Run2018_GENtoAODSIM/aToTauTau_m3p6To15_pT30To200_ctau0To3_eta0To1p4_pythia8_noPU/221011_062903/0000/aToTauTau_m3p6To15_pT30To200_ctau0To3_eta0To1p4_pythia8_noPU_44.root\n'
p263
aS'/store/group/phys_heavyions/rchudasa/e2e/Run2018_GENtoAODSIM/aToTauTau_m3p6To15_pT30To200_ctau0To3_eta0To1p4_pythia8_noPU/221011_062903/0000/aToTauTau_m3p6To15_pT30To200_ctau0To3_eta0To1p4_pythia8_noPU_45.root\n'
p264
aS'/store/group/phys_heavyions/rchudasa/e2e/Run2018_GENtoAODSIM/aToTauTau_m3p6To15_pT30To200_ctau0To3_eta0To1p4_pythia8_noPU/221011_062903/0000/aToTauTau_m3p6To15_pT30To200_ctau0To3_eta0To1p4_pythia8_noPU_47.root\n'
p265
aS'/store/group/phys_heavyions/rchudasa/e2e/Run2018_GENtoAODSIM/aToTauTau_m3p6To15_pT30To200_ctau0To3_eta0To1p4_pythia8_noPU/221011_062903/0000/aToTauTau_m3p6To15_pT30To200_ctau0To3_eta0To1p4_pythia8_noPU_48.root\n'
p266
aS'/store/group/phys_heavyions/rchudasa/e2e/Run2018_GENtoAODSIM/aToTauTau_m3p6To15_pT30To200_ctau0To3_eta0To1p4_pythia8_noPU/221011_062903/0000/aToTauTau_m3p6To15_pT30To200_ctau0To3_eta0To1p4_pythia8_noPU_49.root\n'
p267
aS'/store/group/phys_heavyions/rchudasa/e2e/Run2018_GENtoAODSIM/aToTauTau_m3p6To15_pT30To200_ctau0To3_eta0To1p4_pythia8_noPU/221011_062903/0000/aToTauTau_m3p6To15_pT30To200_ctau0To3_eta0To1p4_pythia8_noPU_50.root\n'
p268
aS'/store/group/phys_heavyions/rchudasa/e2e/Run2018_GENtoAODSIM/aToTauTau_m3p6To15_pT30To200_ctau0To3_eta0To1p4_pythia8_noPU/221011_062903/0000/aToTauTau_m3p6To15_pT30To200_ctau0To3_eta0To1p4_pythia8_noPU_51.root\n'
p269
aS'/store/group/phys_heavyions/rchudasa/e2e/Run2018_GENtoAODSIM/aToTauTau_m3p6To15_pT30To200_ctau0To3_eta0To1p4_pythia8_noPU/221011_062903/0000/aToTauTau_m3p6To15_pT30To200_ctau0To3_eta0To1p4_pythia8_noPU_52.root\n'
p270
aS'/store/group/phys_heavyions/rchudasa/e2e/Run2018_GENtoAODSIM/aToTauTau_m3p6To15_pT30To200_ctau0To3_eta0To1p4_pythia8_noPU/221011_062903/0000/aToTauTau_m3p6To15_pT30To200_ctau0To3_eta0To1p4_pythia8_noPU_53.root\n'
p271
aS'/store/group/phys_heavyions/rchudasa/e2e/Run2018_GENtoAODSIM/aToTauTau_m3p6To15_pT30To200_ctau0To3_eta0To1p4_pythia8_noPU/221011_062903/0000/aToTauTau_m3p6To15_pT30To200_ctau0To3_eta0To1p4_pythia8_noPU_54.root\n'
p272
aS'/store/group/phys_heavyions/rchudasa/e2e/Run2018_GENtoAODSIM/aToTauTau_m3p6To15_pT30To200_ctau0To3_eta0To1p4_pythia8_noPU/221011_062903/0000/aToTauTau_m3p6To15_pT30To200_ctau0To3_eta0To1p4_pythia8_noPU_55.root\n'
p273
aS'/store/group/phys_heavyions/rchudasa/e2e/Run2018_GENtoAODSIM/aToTauTau_m3p6To15_pT30To200_ctau0To3_eta0To1p4_pythia8_noPU/221011_062903/0000/aToTauTau_m3p6To15_pT30To200_ctau0To3_eta0To1p4_pythia8_noPU_56.root\n'
p274
aS'/store/group/phys_heavyions/rchudasa/e2e/Run2018_GENtoAODSIM/aToTauTau_m3p6To15_pT30To200_ctau0To3_eta0To1p4_pythia8_noPU/221011_062903/0000/aToTauTau_m3p6To15_pT30To200_ctau0To3_eta0To1p4_pythia8_noPU_57.root\n'
p275
aS'/store/group/phys_heavyions/rchudasa/e2e/Run2018_GENtoAODSIM/aToTauTau_m3p6To15_pT30To200_ctau0To3_eta0To1p4_pythia8_noPU/221011_062903/0000/aToTauTau_m3p6To15_pT30To200_ctau0To3_eta0To1p4_pythia8_noPU_58.root\n'
p276
aS'/store/group/phys_heavyions/rchudasa/e2e/Run2018_GENtoAODSIM/aToTauTau_m3p6To15_pT30To200_ctau0To3_eta0To1p4_pythia8_noPU/221011_062903/0000/aToTauTau_m3p6To15_pT30To200_ctau0To3_eta0To1p4_pythia8_noPU_59.root\n'
p277
aS'/store/group/phys_heavyions/rchudasa/e2e/Run2018_GENtoAODSIM/aToTauTau_m3p6To15_pT30To200_ctau0To3_eta0To1p4_pythia8_noPU/221011_062903/0000/aToTauTau_m3p6To15_pT30To200_ctau0To3_eta0To1p4_pythia8_noPU_6.root\n'
p278
aS'/store/group/phys_heavyions/rchudasa/e2e/Run2018_GENtoAODSIM/aToTauTau_m3p6To15_pT30To200_ctau0To3_eta0To1p4_pythia8_noPU/221011_062903/0000/aToTauTau_m3p6To15_pT30To200_ctau0To3_eta0To1p4_pythia8_noPU_60.root\n'
p279
aS'/store/group/phys_heavyions/rchudasa/e2e/Run2018_GENtoAODSIM/aToTauTau_m3p6To15_pT30To200_ctau0To3_eta0To1p4_pythia8_noPU/221011_062903/0000/aToTauTau_m3p6To15_pT30To200_ctau0To3_eta0To1p4_pythia8_noPU_61.root\n'
p280
aS'/store/group/phys_heavyions/rchudasa/e2e/Run2018_GENtoAODSIM/aToTauTau_m3p6To15_pT30To200_ctau0To3_eta0To1p4_pythia8_noPU/221011_062903/0000/aToTauTau_m3p6To15_pT30To200_ctau0To3_eta0To1p4_pythia8_noPU_62.root\n'
p281
aS'/store/group/phys_heavyions/rchudasa/e2e/Run2018_GENtoAODSIM/aToTauTau_m3p6To15_pT30To200_ctau0To3_eta0To1p4_pythia8_noPU/221011_062903/0000/aToTauTau_m3p6To15_pT30To200_ctau0To3_eta0To1p4_pythia8_noPU_63.root\n'
p282
aS'/store/group/phys_heavyions/rchudasa/e2e/Run2018_GENtoAODSIM/aToTauTau_m3p6To15_pT30To200_ctau0To3_eta0To1p4_pythia8_noPU/221011_062903/0000/aToTauTau_m3p6To15_pT30To200_ctau0To3_eta0To1p4_pythia8_noPU_64.root\n'
p283
aS'/store/group/phys_heavyions/rchudasa/e2e/Run2018_GENtoAODSIM/aToTauTau_m3p6To15_pT30To200_ctau0To3_eta0To1p4_pythia8_noPU/221011_062903/0000/aToTauTau_m3p6To15_pT30To200_ctau0To3_eta0To1p4_pythia8_noPU_65.root\n'
p284
aS'/store/group/phys_heavyions/rchudasa/e2e/Run2018_GENtoAODSIM/aToTauTau_m3p6To15_pT30To200_ctau0To3_eta0To1p4_pythia8_noPU/221011_062903/0000/aToTauTau_m3p6To15_pT30To200_ctau0To3_eta0To1p4_pythia8_noPU_66.root\n'
p285
aS'/store/group/phys_heavyions/rchudasa/e2e/Run2018_GENtoAODSIM/aToTauTau_m3p6To15_pT30To200_ctau0To3_eta0To1p4_pythia8_noPU/221011_062903/0000/aToTauTau_m3p6To15_pT30To200_ctau0To3_eta0To1p4_pythia8_noPU_67.root\n'
p286
aS'/store/group/phys_heavyions/rchudasa/e2e/Run2018_GENtoAODSIM/aToTauTau_m3p6To15_pT30To200_ctau0To3_eta0To1p4_pythia8_noPU/221011_062903/0000/aToTauTau_m3p6To15_pT30To200_ctau0To3_eta0To1p4_pythia8_noPU_68.root\n'
p287
aS'/store/group/phys_heavyions/rchudasa/e2e/Run2018_GENtoAODSIM/aToTauTau_m3p6To15_pT30To200_ctau0To3_eta0To1p4_pythia8_noPU/221011_062903/0000/aToTauTau_m3p6To15_pT30To200_ctau0To3_eta0To1p4_pythia8_noPU_69.root\n'
p288
aS'/store/group/phys_heavyions/rchudasa/e2e/Run2018_GENtoAODSIM/aToTauTau_m3p6To15_pT30To200_ctau0To3_eta0To1p4_pythia8_noPU/221011_062903/0000/aToTauTau_m3p6To15_pT30To200_ctau0To3_eta0To1p4_pythia8_noPU_7.root\n'
p289
aS'/store/group/phys_heavyions/rchudasa/e2e/Run2018_GENtoAODSIM/aToTauTau_m3p6To15_pT30To200_ctau0To3_eta0To1p4_pythia8_noPU/221011_062903/0000/aToTauTau_m3p6To15_pT30To200_ctau0To3_eta0To1p4_pythia8_noPU_70.root\n'
p290
aS'/store/group/phys_heavyions/rchudasa/e2e/Run2018_GENtoAODSIM/aToTauTau_m3p6To15_pT30To200_ctau0To3_eta0To1p4_pythia8_noPU/221011_062903/0000/aToTauTau_m3p6To15_pT30To200_ctau0To3_eta0To1p4_pythia8_noPU_71.root\n'
p291
aS'/store/group/phys_heavyions/rchudasa/e2e/Run2018_GENtoAODSIM/aToTauTau_m3p6To15_pT30To200_ctau0To3_eta0To1p4_pythia8_noPU/221011_062903/0000/aToTauTau_m3p6To15_pT30To200_ctau0To3_eta0To1p4_pythia8_noPU_74.root\n'
p292
aS'/store/group/phys_heavyions/rchudasa/e2e/Run2018_GENtoAODSIM/aToTauTau_m3p6To15_pT30To200_ctau0To3_eta0To1p4_pythia8_noPU/221011_062903/0000/aToTauTau_m3p6To15_pT30To200_ctau0To3_eta0To1p4_pythia8_noPU_75.root\n'
p293
aS'/store/group/phys_heavyions/rchudasa/e2e/Run2018_GENtoAODSIM/aToTauTau_m3p6To15_pT30To200_ctau0To3_eta0To1p4_pythia8_noPU/221011_062903/0000/aToTauTau_m3p6To15_pT30To200_ctau0To3_eta0To1p4_pythia8_noPU_76.root\n'
p294
aS'/store/group/phys_heavyions/rchudasa/e2e/Run2018_GENtoAODSIM/aToTauTau_m3p6To15_pT30To200_ctau0To3_eta0To1p4_pythia8_noPU/221011_062903/0000/aToTauTau_m3p6To15_pT30To200_ctau0To3_eta0To1p4_pythia8_noPU_77.root\n'
p295
aS'/store/group/phys_heavyions/rchudasa/e2e/Run2018_GENtoAODSIM/aToTauTau_m3p6To15_pT30To200_ctau0To3_eta0To1p4_pythia8_noPU/221011_062903/0000/aToTauTau_m3p6To15_pT30To200_ctau0To3_eta0To1p4_pythia8_noPU_78.root\n'
p296
aS'/store/group/phys_heavyions/rchudasa/e2e/Run2018_GENtoAODSIM/aToTauTau_m3p6To15_pT30To200_ctau0To3_eta0To1p4_pythia8_noPU/221011_062903/0000/aToTauTau_m3p6To15_pT30To200_ctau0To3_eta0To1p4_pythia8_noPU_79.root\n'
p297
aS'/store/group/phys_heavyions/rchudasa/e2e/Run2018_GENtoAODSIM/aToTauTau_m3p6To15_pT30To200_ctau0To3_eta0To1p4_pythia8_noPU/221011_062903/0000/aToTauTau_m3p6To15_pT30To200_ctau0To3_eta0To1p4_pythia8_noPU_8.root\n'
p298
aS'/store/group/phys_heavyions/rchudasa/e2e/Run2018_GENtoAODSIM/aToTauTau_m3p6To15_pT30To200_ctau0To3_eta0To1p4_pythia8_noPU/221011_062903/0000/aToTauTau_m3p6To15_pT30To200_ctau0To3_eta0To1p4_pythia8_noPU_80.root\n'
p299
aS'/store/group/phys_heavyions/rchudasa/e2e/Run2018_GENtoAODSIM/aToTauTau_m3p6To15_pT30To200_ctau0To3_eta0To1p4_pythia8_noPU/221011_062903/0000/aToTauTau_m3p6To15_pT30To200_ctau0To3_eta0To1p4_pythia8_noPU_81.root\n'
p300
aS'/store/group/phys_heavyions/rchudasa/e2e/Run2018_GENtoAODSIM/aToTauTau_m3p6To15_pT30To200_ctau0To3_eta0To1p4_pythia8_noPU/221011_062903/0000/aToTauTau_m3p6To15_pT30To200_ctau0To3_eta0To1p4_pythia8_noPU_82.root\n'
p301
aS'/store/group/phys_heavyions/rchudasa/e2e/Run2018_GENtoAODSIM/aToTauTau_m3p6To15_pT30To200_ctau0To3_eta0To1p4_pythia8_noPU/221011_062903/0000/aToTauTau_m3p6To15_pT30To200_ctau0To3_eta0To1p4_pythia8_noPU_83.root\n'
p302
aS'/store/group/phys_heavyions/rchudasa/e2e/Run2018_GENtoAODSIM/aToTauTau_m3p6To15_pT30To200_ctau0To3_eta0To1p4_pythia8_noPU/221011_062903/0000/aToTauTau_m3p6To15_pT30To200_ctau0To3_eta0To1p4_pythia8_noPU_85.root\n'
p303
aS'/store/group/phys_heavyions/rchudasa/e2e/Run2018_GENtoAODSIM/aToTauTau_m3p6To15_pT30To200_ctau0To3_eta0To1p4_pythia8_noPU/221011_062903/0000/aToTauTau_m3p6To15_pT30To200_ctau0To3_eta0To1p4_pythia8_noPU_87.root\n'
p304
aS'/store/group/phys_heavyions/rchudasa/e2e/Run2018_GENtoAODSIM/aToTauTau_m3p6To15_pT30To200_ctau0To3_eta0To1p4_pythia8_noPU/221011_062903/0000/aToTauTau_m3p6To15_pT30To200_ctau0To3_eta0To1p4_pythia8_noPU_88.root\n'
p305
aS'/store/group/phys_heavyions/rchudasa/e2e/Run2018_GENtoAODSIM/aToTauTau_m3p6To15_pT30To200_ctau0To3_eta0To1p4_pythia8_noPU/221011_062903/0000/aToTauTau_m3p6To15_pT30To200_ctau0To3_eta0To1p4_pythia8_noPU_89.root\n'
p306
aS'/store/group/phys_heavyions/rchudasa/e2e/Run2018_GENtoAODSIM/aToTauTau_m3p6To15_pT30To200_ctau0To3_eta0To1p4_pythia8_noPU/221011_062903/0000/aToTauTau_m3p6To15_pT30To200_ctau0To3_eta0To1p4_pythia8_noPU_9.root\n'
p307
aS'/store/group/phys_heavyions/rchudasa/e2e/Run2018_GENtoAODSIM/aToTauTau_m3p6To15_pT30To200_ctau0To3_eta0To1p4_pythia8_noPU/221011_062903/0000/aToTauTau_m3p6To15_pT30To200_ctau0To3_eta0To1p4_pythia8_noPU_90.root\n'
p308
aS'/store/group/phys_heavyions/rchudasa/e2e/Run2018_GENtoAODSIM/aToTauTau_m3p6To15_pT30To200_ctau0To3_eta0To1p4_pythia8_noPU/221011_062903/0000/aToTauTau_m3p6To15_pT30To200_ctau0To3_eta0To1p4_pythia8_noPU_91.root\n'
p309
aS'/store/group/phys_heavyions/rchudasa/e2e/Run2018_GENtoAODSIM/aToTauTau_m3p6To15_pT30To200_ctau0To3_eta0To1p4_pythia8_noPU/221011_062903/0000/aToTauTau_m3p6To15_pT30To200_ctau0To3_eta0To1p4_pythia8_noPU_92.root\n'
p310
aS'/store/group/phys_heavyions/rchudasa/e2e/Run2018_GENtoAODSIM/aToTauTau_m3p6To15_pT30To200_ctau0To3_eta0To1p4_pythia8_noPU/221011_062903/0000/aToTauTau_m3p6To15_pT30To200_ctau0To3_eta0To1p4_pythia8_noPU_93.root\n'
p311
aS'/store/group/phys_heavyions/rchudasa/e2e/Run2018_GENtoAODSIM/aToTauTau_m3p6To15_pT30To200_ctau0To3_eta0To1p4_pythia8_noPU/221011_062903/0000/aToTauTau_m3p6To15_pT30To200_ctau0To3_eta0To1p4_pythia8_noPU_94.root\n'
p312
aS'/store/group/phys_heavyions/rchudasa/e2e/Run2018_GENtoAODSIM/aToTauTau_m3p6To15_pT30To200_ctau0To3_eta0To1p4_pythia8_noPU/221011_062903/0000/aToTauTau_m3p6To15_pT30To200_ctau0To3_eta0To1p4_pythia8_noPU_96.root\n'
p313
aS'/store/group/phys_heavyions/rchudasa/e2e/Run2018_GENtoAODSIM/aToTauTau_m3p6To15_pT30To200_ctau0To3_eta0To1p4_pythia8_noPU/221011_062903/0000/aToTauTau_m3p6To15_pT30To200_ctau0To3_eta0To1p4_pythia8_noPU_97.root\n'
p314
aS'/store/group/phys_heavyions/rchudasa/e2e/Run2018_GENtoAODSIM/aToTauTau_m3p6To15_pT30To200_ctau0To3_eta0To1p4_pythia8_noPU/221011_062903/0000/aToTauTau_m3p6To15_pT30To200_ctau0To3_eta0To1p4_pythia8_noPU_98.root\n'
p315
aS'/store/group/phys_heavyions/rchudasa/e2e/Run2018_GENtoAODSIM/aToTauTau_m3p6To15_pT30To200_ctau0To3_eta0To1p4_pythia8_noPU/221011_062903/0000/aToTauTau_m3p6To15_pT30To200_ctau0To3_eta0To1p4_pythia8_noPU_99.root\n'
p316
asg85
I-1
sbsg34
g2
(g9
g4
Ntp317
Rp318
(dp319
g13
I00
sg14
g15
sg16
g17
((lp320
S'psetName'
p321
aS'pluginName'
p322
atp323
Rp324
sg22
g34
sg23
(dp325
sg322
S'Analysis'
p326
sg25
g17
((lp327
tp328
Rp329
sg321
S'RecHitAnalyzer/python/ConfFile_cfg.py'
p330
sg30
NsbsbsS'voGroup'
p331
g15
sS'Server'
p332
S'cmsweb.cern.ch'
p333
sS'instance'
p334
S'prod'
p335
sS'RequestName'
p336
V221011_113917:rchudasa_crab_aToTauTau_m3p6To15_pT30To200_ctau0To3_eta0To1p4_pythia8_noPU
p337
sS'voRole'
p338
S'NULL'
p339
sS'Port'
p340
g15
s.